(lp0
ccopy_reg
_reconstructor
p1
(c__main__
Intersection
p2
c__builtin__
object
p3
Ntp4
Rp5
(dp6
S'signal'
p7
g1
(c__main__
Signal
p8
g3
Ntp9
Rp10
(dp11
S'status'
p12
S'In Service'
p13
sS'lat'
p14
F49.198736
sS'signal_id'
p15
F123.0
sS'signal_type2'
p16
S'Traffic'
p17
sS'mod_date'
p18
I20100311
sS'radio_control'
p19
S'Yes'
p20
sS'opticom'
p21
S'Y'
p22
sS'location'
p23
S'108 Avenue and 150 Street'
p24
sS'year'
p25
F2009.0
sS'signal_type'
p26
I4
sS'rotation'
p27
Fnan
sS'construction_status'
p28
S'Constructed'
p29
sS'lng'
p30
F-122.806174
sbsS'cameras'
p31
(lp32
g1
(c__main__
Camera
p33
g3
Ntp34
Rp35
(dp36
g14
F49.19880655
sS'image'
p37
S'http://cosmos.surrey.ca/TrafficCameraImages/enc_108_150_cam1.jpg'
p38
sg27
Fnan
sg23
S'108 Ave And 150 St'
p39
sg30
F-122.8061134
sbasbag1
(g2
g3
Ntp40
Rp41
(dp42
g7
g1
(g8
g3
Ntp43
Rp44
(dp45
g12
g13
sg14
F49.191621000000005
sg15
F38.0
sg16
g17
sg18
I20100312
sg19
g20
sg21
g22
sg23
S'King George Blvd and 104 Avenue'
p46
sg25
F2009.0
sg26
I4
sg27
Fnan
sg28
g29
sg30
F-122.845349
sbsg31
(lp47
g1
(g33
g3
Ntp48
Rp49
(dp50
g14
F49.19149235
sg37
S'http://cosmos.surrey.ca/TrafficCameraImages/enc_104_kgbv_cam1.jpg'
p51
sg27
Fnan
sg23
S'104 Ave And King George Blvd'
p52
sg30
F-122.845579
sbasbag1
(g2
g3
Ntp53
Rp54
(dp55
g7
g1
(g8
g3
Ntp56
Rp57
(dp58
g12
g13
sg14
F49.198731
sg15
F435.0
sg16
g17
sg18
I20100311
sg19
S'No'
p59
sg21
g22
sg23
S'108 Avenue and Oriole Drive'
p60
sg25
F2009.0
sg26
I4
sg27
Fnan
sg28
g29
sg30
F-122.808619
sbsg31
(lp61
g1
(g33
g3
Ntp62
Rp63
(dp64
g14
F49.19873139
sg37
S'http://cosmos.surrey.ca/TrafficCameraImages/enc_108_oriole_cam1.jpg'
p65
sg27
Fnan
sg23
S'108 Ave And Oriole Dr'
p66
sg30
F-122.80861920000001
sbasbag1
(g2
g3
Ntp67
Rp68
(dp69
g7
g1
(g8
g3
Ntp70
Rp71
(dp72
g12
g13
sg14
F49.173382000000004
sg15
F19.0
sg16
g17
sg18
I20091217
sg19
g59
sg21
Fnan
sg23
S'94 Avenue and 192 Street'
p73
sg25
F2009.0
sg26
I4
sg27
Fnan
sg28
g29
sg30
F-122.69058400000002
sbsg31
(lp74
sbag1
(g2
g3
Ntp75
Rp76
(dp77
g7
g1
(g8
g3
Ntp78
Rp79
(dp80
g12
g13
sg14
F49.176997
sg15
F25.0
sg16
g17
sg18
I20091217
sg19
g59
sg21
g22
sg23
S'96 Avenue and 192 Street'
p81
sg25
F2009.0
sg26
I4
sg27
Fnan
sg28
g29
sg30
F-122.690487
sbsg31
(lp82
g1
(g33
g3
Ntp83
Rp84
(dp85
g14
F49.17685015
sg37
S'http://cosmos.surrey.ca/TrafficCameraImages/enc_96_192_cam1.jpg'
p86
sg27
Fnan
sg23
S'96 Ave And 192 St'
p87
sg30
F-122.6907381
sbasbag1
(g2
g3
Ntp88
Rp89
(dp90
g7
g1
(g8
g3
Ntp91
Rp92
(dp93
g12
g13
sg14
F49.108312
sg15
F419.0
sg16
g17
sg18
I20091223
sg19
g59
sg21
Fnan
sg23
S'58A Ave @ Cloverdale Bypass'
p94
sg25
F2007.0
sg26
I4
sg27
Fnan
sg28
g29
sg30
F-122.73678600000001
sbsg31
(lp95
sbag1
(g2
g3
Ntp96
Rp97
(dp98
g7
g1
(g8
g3
Ntp99
Rp100
(dp101
g12
g13
sg14
F49.118775
sg15
F271.0
sg16
g17
sg18
I20091223
sg19
g59
sg21
Fnan
sg23
S'64 Ave & Hwy 15'
p102
sg25
F2007.0
sg26
I4
sg27
Fnan
sg28
g29
sg30
F-122.73496000000002
sbsg31
(lp103
sbag1
(g2
g3
Ntp104
Rp105
(dp106
g7
g1
(g8
g3
Ntp107
Rp108
(dp109
g12
g13
sg14
F49.115724
sg15
F279.0
sg16
g17
sg18
I20091223
sg19
g59
sg21
Fnan
sg23
S'62 Ave @ Hwy 15'
p110
sg25
F2007.0
sg26
I4
sg27
Fnan
sg28
g29
sg30
F-122.73488600000002
sbsg31
(lp111
sbag1
(g2
g3
Ntp112
Rp113
(dp114
g7
g1
(g8
g3
Ntp115
Rp116
(dp117
g12
g13
sg14
F49.111478000000005
sg15
F32.0
sg16
g17
sg18
I20091223
sg19
g59
sg21
Fnan
sg23
S'60 Ave @ Hwy 15'
p118
sg25
F2007.0
sg26
I4
sg27
Fnan
sg28
g29
sg30
F-122.73486499999999
sbsg31
(lp119
sbag1
(g2
g3
Ntp120
Rp121
(dp122
g7
g1
(g8
g3
Ntp123
Rp124
(dp125
g12
g13
sg14
F49.133738
sg15
F130.0
sg16
g17
sg18
I20101202
sg19
g20
sg21
g22
sg23
S'72 Avenue and 148 Street'
p126
sg25
F2009.0
sg26
I4
sg27
Fnan
sg28
g29
sg30
F-122.812169
sbsg31
(lp127
g1
(g33
g3
Ntp128
Rp129
(dp130
g14
F49.13373765
sg37
S'http://cosmos.surrey.ca/TrafficCameraImages/enc_72_148_cam1.jpg'
p131
sg27
Fnan
sg23
S'72 Ave And 148 St'
p132
sg30
F-122.8121685
sbasbag1
(g2
g3
Ntp133
Rp134
(dp135
g7
g1
(g8
g3
Ntp136
Rp137
(dp138
g12
g13
sg14
F49.180845
sg15
F321.0
sg16
g17
sg18
I20110303
sg19
g59
sg21
g22
sg23
S'Green Timbers Way and 140 Street'
p139
sg25
F2010.0
sg26
I4
sg27
Fnan
sg28
g29
sg30
F-122.83436599999999
sbsg31
(lp140
sbag1
(g2
g3
Ntp141
Rp142
(dp143
g7
g1
(g8
g3
Ntp144
Rp145
(dp146
g12
g13
sg14
F49.178801
sg15
F248.0
sg16
g17
sg18
I20110303
sg19
g20
sg21
g22
sg23
S'Fraser Highway and 140 Street'
p147
sg25
F2010.0
sg26
I4
sg27
Fnan
sg28
g29
sg30
F-122.83436100000002
sbsg31
(lp148
g1
(g33
g3
Ntp149
Rp150
(dp151
g14
F49.17862983
sg37
S'http://cosmos.surrey.ca/TrafficCameraImages/enc_fraser_140_cam1.jpg'
p152
sg27
Fnan
sg23
S'Fraser Hwy And 140 St'
p153
sg30
F-122.83414350000001
sbasbag1
(g2
g3
Ntp154
Rp155
(dp156
g7
g1
(g8
g3
Ntp157
Rp158
(dp159
g12
g13
sg14
F49.184203000000004
sg15
F161.0
sg16
g17
sg18
I20110303
sg19
g20
sg21
g22
sg23
S'100 Avenue and 140 Street'
p160
sg25
F2010.0
sg26
I4
sg27
Fnan
sg28
g29
sg30
F-122.834175
sbsg31
(lp161
g1
(g33
g3
Ntp162
Rp163
(dp164
g14
F49.18411369
sg37
S'http://cosmos.surrey.ca/TrafficCameraImages/enc_100_140_cam1.jpg'
p165
sg27
Fnan
sg23
S'100 Ave And 140 St'
p166
sg30
F-122.83430990000002
sbasbag1
(g2
g3
Ntp167
Rp168
(dp169
g7
g1
(g8
g3
Ntp170
Rp171
(dp172
g12
g13
sg14
F49.038354999999996
sg15
F202.0
sg16
g17
sg18
I20120920
sg19
g20
sg21
Fnan
sg23
S'20 Avenue and 152 Street'
p173
sg25
Fnan
sg26
I4
sg27
Fnan
sg28
g29
sg30
F-122.80119199999999
sbsg31
(lp174
g1
(g33
g3
Ntp175
Rp176
(dp177
g14
F49.03827304
sg37
S'http://cosmos.surrey.ca/TrafficCameraImages/enc_20_152_cam1.jpg'
p178
sg27
Fnan
sg23
S'20 Ave And 152 St'
p179
sg30
F-122.80136609999998
sbasbag1
(g2
g3
Ntp180
Rp181
(dp182
g7
g1
(g8
g3
Ntp183
Rp184
(dp185
g12
S'Proposed'
p186
sg14
F49.03846
sg15
F431.0
sg16
S'Pedestrian'
p187
sg18
I20120920
sg19
g59
sg21
Fnan
sg23
Fnan
sg25
Fnan
sg26
I2
sg27
Fnan
sg28
g29
sg30
F-122.735228
sbsg31
(lp188
sbag1
(g2
g3
Ntp189
Rp190
(dp191
g7
g1
(g8
g3
Ntp192
Rp193
(dp194
g12
g13
sg14
F49.16285
sg15
F46.0
sg16
g17
sg18
I20120920
sg19
g20
sg21
g22
sg23
S'88 Avenue and 152 Street'
p195
sg25
Fnan
sg26
I4
sg27
Fnan
sg28
g29
sg30
F-122.801507
sbsg31
(lp196
g1
(g33
g3
Ntp197
Rp198
(dp199
g14
F49.16271117
sg37
S'http://cosmos.surrey.ca/TrafficCameraImages/enc_88_152_cam1.jpg'
p200
sg27
Fnan
sg23
S'88 Ave And 152 St'
p201
sg30
F-122.80131499999999
sbasbag1
(g2
g3
Ntp202
Rp203
(dp204
g7
g1
(g8
g3
Ntp205
Rp206
(dp207
g12
g13
sg14
F49.17685
sg15
F380.0
sg16
g187
sg18
I20120920
sg19
g59
sg21
Fnan
sg23
S'96 Avenue and 150 Street'
p208
sg25
Fnan
sg26
I2
sg27
Fnan
sg28
g29
sg30
F-122.80663200000001
sbsg31
(lp209
sbag1
(g2
g3
Ntp210
Rp211
(dp212
g7
g1
(g8
g3
Ntp213
Rp214
(dp215
g12
g13
sg14
F49.172457
sg15
F448.0
sg16
g187
sg18
I20120920
sg19
g59
sg21
Fnan
sg23
S'93A Avenue and 140 Street'
p216
sg25
Fnan
sg26
I2
sg27
Fnan
sg28
g29
sg30
F-122.83460600000001
sbsg31
(lp217
sbag1
(g2
g3
Ntp218
Rp219
(dp220
g7
g1
(g8
g3
Ntp221
Rp222
(dp223
g12
g13
sg14
F49.176871000000006
sg15
F224.0
sg16
g17
sg18
I20120920
sg19
g59
sg21
g22
sg23
S'96 Avenue and 148 Street'
p224
sg25
Fnan
sg26
I4
sg27
Fnan
sg28
g29
sg30
F-122.812234
sbsg31
(lp225
g1
(g33
g3
Ntp226
Rp227
(dp228
g14
F49.17678339
sg37
S'http://cosmos.surrey.ca/TrafficCameraImages/enc_96_148_cam1.jpg'
p229
sg27
Fnan
sg23
S'96 Ave And 148 St'
p230
sg30
F-122.8120943
sbasbag1
(g2
g3
Ntp231
Rp232
(dp233
g7
g1
(g8
g3
Ntp234
Rp235
(dp236
g12
g13
sg14
F49.204988
sg15
F151.0
sg16
g17
sg18
I20120920
sg19
g20
sg21
g22
sg23
S'King George Blvd and 132 Street'
p237
sg25
Fnan
sg26
I4
sg27
Fnan
sg28
g29
sg30
F-122.85446
sbsg31
(lp238
g1
(g33
g3
Ntp239
Rp240
(dp241
g14
F49.204741
sg37
S'http://cosmos.surrey.ca/TrafficCameraImages/enc_kgbv_132_cam1.jpg'
p242
sg27
Fnan
sg23
S'King George Blvd And 132 St'
p243
sg30
F-122.85441159999999
sbasbag1
(g2
g3
Ntp244
Rp245
(dp246
g7
g1
(g8
g3
Ntp247
Rp248
(dp249
g12
g13
sg14
F49.162822
sg15
F126.0
sg16
g17
sg18
I20151005
sg19
g59
sg21
g22
sg23
S'88 Avenue and 148 Street'
p250
sg25
Fnan
sg26
I4
sg27
Fnan
sg28
g29
sg30
F-122.812382
sbsg31
(lp251
g1
(g33
g3
Ntp252
Rp253
(dp254
g14
F49.16282209
sg37
S'http://cosmos.surrey.ca/TrafficCameraImages/enc_88_148_cam1.jpg'
p255
sg27
Fnan
sg23
S'88 Ave And 148 St'
p256
sg30
F-122.8123821
sbasbag1
(g2
g3
Ntp257
Rp258
(dp259
g7
g1
(g8
g3
Ntp260
Rp261
(dp262
g12
g13
sg14
F49.180739
sg15
F324.0
sg16
g17
sg18
I20120920
sg19
g20
sg21
Fnan
sg23
S'Fraser Highway and Whalley Blvd'
p263
sg25
Fnan
sg26
I4
sg27
Fnan
sg28
g29
sg30
F-122.841457
sbsg31
(lp264
g1
(g33
g3
Ntp265
Rp266
(dp267
g14
F49.1806169
sg37
S'http://cosmos.surrey.ca/TrafficCameraImages/enc_fraser_whalley_cam1.jpg'
p268
sg27
Fnan
sg23
S'Fraser Hwy And Whalley Blvd'
p269
sg30
F-122.8411392
sbasbag1
(g2
g3
Ntp270
Rp271
(dp272
g7
g1
(g8
g3
Ntp273
Rp274
(dp275
g12
g13
sg14
F49.188526
sg15
F155.0
sg16
g17
sg18
I20120920
sg19
g20
sg21
Fnan
sg23
S'102 Avenue and University Drive'
p276
sg25
Fnan
sg26
I4
sg27
Fnan
sg28
g29
sg30
F-122.850077
sbsg31
(lp277
g1
(g33
g3
Ntp278
Rp279
(dp280
g14
F49.18891317
sg37
S'http://cosmos.surrey.ca/TrafficCameraImages/enc_universitydr_transitexchange_cam1.jpg'
p281
sg27
Fnan
sg23
S'Transit Exchange And University Dr'
p282
sg30
F-122.8498747
sbag1
(g33
g3
Ntp283
Rp284
(dp285
g14
F49.18838067
sg37
S'http://cosmos.surrey.ca/TrafficCameraImages/enc_universitydr_102_cam1.jpg'
p286
sg27
Fnan
sg23
S'102 Ave And University Dr'
p287
sg30
F-122.85038529999999
sbasbag1
(g2
g3
Ntp288
Rp289
(dp290
g7
g1
(g8
g3
Ntp291
Rp292
(dp293
g12
g13
sg14
F49.137209999999996
sg15
F36.0
sg16
g17
sg18
I20120920
sg19
g59
sg21
g22
sg23
S'74 Avenue and 137 Street'
p294
sg25
Fnan
sg26
I4
sg27
Fnan
sg28
g29
sg30
F-122.842827
sbsg31
(lp295
g1
(g33
g3
Ntp296
Rp297
(dp298
g14
F49.13720984
sg37
S'http://cosmos.surrey.ca/TrafficCameraImages/enc_74_137_cam1.jpg'
p299
sg27
Fnan
sg23
S'74 Ave And 137 St'
p300
sg30
F-122.8428271
sbasbag1
(g2
g3
Ntp301
Rp302
(dp303
g7
g1
(g8
g3
Ntp304
Rp305
(dp306
g12
g13
sg14
F49.133678
sg15
F4.0
sg16
g17
sg18
I20120920
sg19
g20
sg21
g22
sg23
S'72 Avenue and 152 Street'
p307
sg25
Fnan
sg26
I4
sg27
Fnan
sg28
g29
sg30
F-122.80108100000001
sbsg31
(lp308
sbag1
(g2
g3
Ntp309
Rp310
(dp311
g7
g1
(g8
g3
Ntp312
Rp313
(dp314
g12
g13
sg14
F49.170099
sg15
F304.0
sg16
g17
sg18
I20120920
sg19
g59
sg21
Fnan
sg23
S'92 Avenue and 140 Street'
p315
sg25
Fnan
sg26
I4
sg27
Fnan
sg28
g29
sg30
F-122.834616
sbsg31
(lp316
g1
(g33
g3
Ntp317
Rp318
(dp319
g14
F49.17009932
sg37
S'http://cosmos.surrey.ca/TrafficCameraImages/enc_92_140_cam1.jpg'
p320
sg27
Fnan
sg23
S'92 Ave And 140 St'
p321
sg30
F-122.8346162
sbasbag1
(g2
g3
Ntp322
Rp323
(dp324
g7
g1
(g8
g3
Ntp325
Rp326
(dp327
g12
g13
sg14
F49.191642
sg15
F298.0
sg16
g17
sg18
I20151005
sg19
g20
sg21
g22
sg23
S'104 Avenue and University Drive'
p328
sg25
Fnan
sg26
I4
sg27
Fnan
sg28
g29
sg30
F-122.85056000000002
sbsg31
(lp329
g1
(g33
g3
Ntp330
Rp331
(dp332
g14
F49.19164171
sg37
S'http://cosmos.surrey.ca/TrafficCameraImages/enc_universitydr_104_cam1.jpg'
p333
sg27
Fnan
sg23
S'104 Ave And University Dr'
p334
sg30
F-122.8505598
sbasbag1
(g2
g3
Ntp335
Rp336
(dp337
g7
g1
(g8
g3
Ntp338
Rp339
(dp340
g12
g13
sg14
F49.155526
sg15
F215.0
sg16
g17
sg18
I20151005
sg19
g59
sg21
g22
sg23
S'84 Avenue and 148 Street'
p341
sg25
Fnan
sg26
I4
sg27
Fnan
sg28
g29
sg30
F-122.81245700000001
sbsg31
(lp342
g1
(g33
g3
Ntp343
Rp344
(dp345
g14
F49.15552595
sg37
S'http://cosmos.surrey.ca/TrafficCameraImages/enc_84_148_cam1.jpg'
p346
sg27
Fnan
sg23
S'84 Ave And 148 St'
p347
sg30
F-122.8124574
sbasbag1
(g2
g3
Ntp348
Rp349
(dp350
g7
g1
(g8
g3
Ntp351
Rp352
(dp353
g12
g13
sg14
F49.159597
sg15
F370.0
sg16
g187
sg18
I20120920
sg19
g59
sg21
Fnan
sg23
S'86 Avenue and120 Street'
p354
sg25
Fnan
sg26
I2
sg27
Fnan
sg28
g29
sg30
F-122.89036599999999
sbsg31
(lp355
g1
(g33
g3
Ntp356
Rp357
(dp358
g14
F49.15959677
sg37
S'http://cosmos.surrey.ca/TrafficCameraImages/enc_86_120_cam1.jpg'
p359
sg27
Fnan
sg23
S'86 Ave And 120 St'
p360
sg30
F-122.89036609999998
sbasbag1
(g2
g3
Ntp361
Rp362
(dp363
g7
g1
(g8
g3
Ntp364
Rp365
(dp366
g12
g13
sg14
F49.158608
sg15
F92.0
sg16
g17
sg18
I20120920
sg19
g20
sg21
g22
sg23
S'Fraser Highway and 159 Street'
p367
sg25
Fnan
sg26
I4
sg27
Fnan
sg28
g29
sg30
F-122.782058
sbsg31
(lp368
g1
(g33
g3
Ntp369
Rp370
(dp371
g14
F49.15860757
sg37
S'http://cosmos.surrey.ca/TrafficCameraImages/enc_fraser_159_cam1.jpg'
p372
sg27
Fnan
sg23
S'Fraser Hwy And 159 St'
p373
sg30
F-122.78205829999999
sbasbag1
(g2
g3
Ntp374
Rp375
(dp376
g7
g1
(g8
g3
Ntp377
Rp378
(dp379
g12
g13
sg14
F49.160115000000005
sg15
Fnan
sg16
S'Special Crosswalk'
p380
sg18
I20151005
sg19
Fnan
sg21
Fnan
sg23
S'86A Ave @  144 St'
p381
sg25
F2014.0
sg26
I3
sg27
Fnan
sg28
g29
sg30
F-122.823399
sbsg31
(lp382
sbag1
(g2
g3
Ntp383
Rp384
(dp385
g7
g1
(g8
g3
Ntp386
Rp387
(dp388
g12
g13
sg14
F49.15078
sg15
F175.0
sg16
g17
sg18
I20120920
sg19
g59
sg21
g22
sg23
S'Fraser Highway and 166 Street'
p389
sg25
Fnan
sg26
I4
sg27
Fnan
sg28
g29
sg30
F-122.76206599999999
sbsg31
(lp390
g1
(g33
g3
Ntp391
Rp392
(dp393
g14
F49.15077973
sg37
S'http://cosmos.surrey.ca/TrafficCameraImages/enc_fraser_166_cam1.jpg'
p394
sg27
Fnan
sg23
S'Fraser Hwy And 166 St'
p395
sg30
F-122.7620663
sbasbag1
(g2
g3
Ntp396
Rp397
(dp398
g7
g1
(g8
g3
Ntp399
Rp400
(dp401
g12
g13
sg14
F49.135118
sg15
F338.0
sg16
S'Fire'
p402
sg18
I20120920
sg19
g59
sg21
Fnan
sg23
Fnan
sg25
Fnan
sg26
I1
sg27
Fnan
sg28
g29
sg30
F-122.85671299999998
sbsg31
(lp403
sbag1
(g2
g3
Ntp404
Rp405
(dp406
g7
g1
(g8
g3
Ntp407
Rp408
(dp409
g12
g13
sg14
F49.162639
sg15
F378.0
sg16
g402
sg18
I20120920
sg19
g59
sg21
Fnan
sg23
Fnan
sg25
Fnan
sg26
I1
sg27
Fnan
sg28
g29
sg30
F-122.85691000000001
sbsg31
(lp410
g1
(g33
g3
Ntp411
Rp412
(dp413
g14
F49.16251632
sg37
S'http://cosmos.surrey.ca/TrafficCameraImages/enc_88_132_cam1.jpg'
p414
sg27
Fnan
sg23
S'88 Ave And 132 St'
p415
sg30
F-122.8567028
sbasbag1
(g2
g3
Ntp416
Rp417
(dp418
g7
g1
(g8
g3
Ntp419
Rp420
(dp421
g12
g13
sg14
F49.18786
sg15
F173.0
sg16
g17
sg18
I20120920
sg19
g20
sg21
Fnan
sg23
S'102 Avenue and City Parkway'
p422
sg25
Fnan
sg26
I4
sg27
Fnan
sg28
g29
sg30
F-122.84767
sbsg31
(lp423
g1
(g33
g3
Ntp424
Rp425
(dp426
g14
F49.18786027
sg37
S'http://cosmos.surrey.ca/TrafficCameraImages/enc_102_cityparkway_cam2.jpg'
p427
sg27
Fnan
sg23
S'102 Ave And City Parkway'
p428
sg30
F-122.84766979999999
sbag1
(g33
g3
Ntp429
Rp430
(dp431
g14
F49.18774911
sg37
S'http://cosmos.surrey.ca/TrafficCameraImages/enc_cityparkway_102_cam1.jpg'
p432
sg27
Fnan
sg23
g428
sg30
F-122.8475835
sbasbag1
(g2
g3
Ntp433
Rp434
(dp435
g7
g1
(g8
g3
Ntp436
Rp437
(dp438
g12
g13
sg14
F49.12623
sg15
F76.0
sg16
g17
sg18
I20120920
sg19
g20
sg21
g22
sg23
S'King George Blvd and 68 Avenue'
p439
sg25
Fnan
sg26
I4
sg27
Fnan
sg28
g29
sg30
F-122.845593
sbsg31
(lp440
g1
(g33
g3
Ntp441
Rp442
(dp443
g14
F49.1263227
sg37
S'http://cosmos.surrey.ca/TrafficCameraImages/enc_68_kgbv_cam1.jpg'
p444
sg27
Fnan
sg23
S'68 Ave And King George Blvd'
p445
sg30
F-122.84540459999998
sbasbag1
(g2
g3
Ntp446
Rp447
(dp448
g7
g1
(g8
g3
Ntp449
Rp450
(dp451
g12
g13
sg14
F49.162801
sg15
F40.0
sg16
g17
sg18
I20120920
sg19
g20
sg21
g22
sg23
S'88 Avenue and 156 Street'
p452
sg25
Fnan
sg26
I4
sg27
Fnan
sg28
g29
sg30
F-122.79018
sbsg31
(lp453
g1
(g33
g3
Ntp454
Rp455
(dp456
g14
F49.16280076
sg37
S'http://cosmos.surrey.ca/TrafficCameraImages/enc_88_156_cam1.jpg'
p457
sg27
Fnan
sg23
S'88 Ave And 156 St'
p458
sg30
F-122.79017979999999
sbasbag1
(g2
g3
Ntp459
Rp460
(dp461
g7
g1
(g8
g3
Ntp462
Rp463
(dp464
g12
g13
sg14
F49.060635
sg15
F266.0
sg16
g17
sg18
I20120920
sg19
g20
sg21
Fnan
sg23
S'32 Avenue and 154 Street'
p465
sg25
Fnan
sg26
I4
sg27
Fnan
sg28
g29
sg30
F-122.797399
sbsg31
(lp466
g1
(g33
g3
Ntp467
Rp468
(dp469
g14
F49.06066026
sg37
S'http://cosmos.surrey.ca/TrafficCameraImages/enc_32_croydon_cam1.jpg'
p470
sg27
Fnan
sg23
S'32 Ave And Croydon'
p471
sg30
F-122.79716100000002
sbasbag1
(g2
g3
Ntp472
Rp473
(dp474
g7
g1
(g8
g3
Ntp475
Rp476
(dp477
g12
g13
sg14
F49.140933000000004
sg15
F218.0
sg16
g17
sg18
I20120920
sg19
g20
sg21
g22
sg23
S'76 Avenue and 132 Street'
p478
sg25
Fnan
sg26
I4
sg27
Fnan
sg28
g29
sg30
F-122.85676000000001
sbsg31
(lp479
g1
(g33
g3
Ntp480
Rp481
(dp482
g14
F49.14093285
sg37
S'http://cosmos.surrey.ca/TrafficCameraImages/enc_76_132_cam1.jpg'
p483
sg27
Fnan
sg23
S'76 Ave And 132 St'
p484
sg30
F-122.8567604
sbasbag1
(g2
g3
Ntp485
Rp486
(dp487
g7
g1
(g8
g3
Ntp488
Rp489
(dp490
g12
g13
sg14
F49.199203000000004
sg15
F63.0
sg16
g17
sg18
I20120920
sg19
g20
sg21
g22
sg23
S'Scott Road and Old Yale Road'
p491
sg25
Fnan
sg26
I4
sg27
Fnan
sg28
g29
sg30
F-122.88249099999999
sbsg31
(lp492
g1
(g33
g3
Ntp493
Rp494
(dp495
g14
F49.19925174
sg37
S'http://cosmos.surrey.ca/TrafficCameraImages/enc_oldyale_120_cam1.jpg'
p496
sg27
Fnan
sg23
S'Old Yale Rd And 120 St'
p497
sg30
F-122.88223
sbasbag1
(g2
g3
Ntp498
Rp499
(dp500
g7
g1
(g8
g3
Ntp501
Rp502
(dp503
g12
g13
sg14
F49.034749
sg15
F196.0
sg16
g17
sg18
I20120920
sg19
g20
sg21
g22
sg23
S'18 Avenue and 152 Street'
p504
sg25
Fnan
sg26
I4
sg27
Fnan
sg28
g29
sg30
F-122.80118999999999
sbsg31
(lp505
g1
(g33
g3
Ntp506
Rp507
(dp508
g14
F49.03465145
sg37
S'http://cosmos.surrey.ca/TrafficCameraImages/enc_18_152_cam1.jpg'
p509
sg27
Fnan
sg23
S'18 Ave And 152 St'
p510
sg30
F-122.80138829999999
sbasbag1
(g2
g3
Ntp511
Rp512
(dp513
g7
g1
(g8
g3
Ntp514
Rp515
(dp516
g12
g13
sg14
F49.0312
sg15
F110.0
sg16
g17
sg18
I20120920
sg19
g20
sg21
Fnan
sg23
S'16 Avenue and 140 Street'
p517
sg25
Fnan
sg26
I4
sg27
Fnan
sg28
g29
sg30
F-122.834328
sbsg31
(lp518
g1
(g33
g3
Ntp519
Rp520
(dp521
g14
F49.03108694
sg37
S'http://cosmos.surrey.ca/TrafficCameraImages/enc_16_140_cam1.jpg'
p522
sg27
Fnan
sg23
S'16 Ave And 140 St'
p523
sg30
F-122.83421159999999
sbasbag1
(g2
g3
Ntp524
Rp525
(dp526
g7
g1
(g8
g3
Ntp527
Rp528
(dp529
g12
g13
sg14
F49.118959999999994
sg15
F254.0
sg16
g17
sg18
I20120920
sg19
g20
sg21
g22
sg23
S'64 Avenue and 188 Street'
p530
sg25
Fnan
sg26
I4
sg27
Fnan
sg28
g29
sg30
F-122.701723
sbsg31
(lp531
g1
(g33
g3
Ntp532
Rp533
(dp534
g14
F49.11909436
sg37
S'http://cosmos.surrey.ca/TrafficCameraImages/enc_64_188_cam1.jpg'
p535
sg27
Fnan
sg23
S'64 Ave And 188 St'
p536
sg30
F-122.70159129999999
sbasbag1
(g2
g3
Ntp537
Rp538
(dp539
g7
g1
(g8
g3
Ntp540
Rp541
(dp542
g12
g13
sg14
F49.155522
sg15
F325.0
sg16
g17
sg18
I20151005
sg19
g59
sg21
g22
sg23
S'84 Avenue and 144 Street'
p543
sg25
Fnan
sg26
I4
sg27
Fnan
sg28
g29
sg30
F-122.823351
sbsg31
(lp544
g1
(g33
g3
Ntp545
Rp546
(dp547
g14
F49.1555221
sg37
S'http://cosmos.surrey.ca/TrafficCameraImages/enc_84_144_cam1.jpg'
p548
sg27
Fnan
sg23
S'84 Ave And 144 St'
p549
sg30
F-122.82335149999999
sbasbag1
(g2
g3
Ntp550
Rp551
(dp552
g7
g1
(g8
g3
Ntp553
Rp554
(dp555
g12
g13
sg14
F49.141025
sg15
F131.0
sg16
g17
sg18
I20120920
sg19
g20
sg21
g22
sg23
S'76 Avenue and 128 Street'
p556
sg25
Fnan
sg26
I4
sg27
Fnan
sg28
g29
sg30
F-122.867906
sbsg31
(lp557
g1
(g33
g3
Ntp558
Rp559
(dp560
g14
F49.14102549
sg37
S'http://cosmos.surrey.ca/TrafficCameraImages/enc_76_128_cam1.jpg'
p561
sg27
Fnan
sg23
S'76 Ave And 128 St'
p562
sg30
F-122.86790649999999
sbasbag1
(g2
g3
Ntp563
Rp564
(dp565
g7
g1
(g8
g3
Ntp566
Rp567
(dp568
g12
g13
sg14
F49.126653000000005
sg15
F108.0
sg16
g17
sg18
I20120920
sg19
g59
sg21
g22
sg23
S'68 Avenue and 124 Street'
p569
sg25
Fnan
sg26
I4
sg27
Fnan
sg28
g29
sg30
F-122.87898500000001
sbsg31
(lp570
sbag1
(g2
g3
Ntp571
Rp572
(dp573
g7
g1
(g8
g3
Ntp574
Rp575
(dp576
g12
g13
sg14
F49.152284
sg15
F307.0
sg16
g17
sg18
I20120920
sg19
g20
sg21
g22
sg23
S'82 Avenue and 120 Street'
p577
sg25
Fnan
sg26
I4
sg27
Fnan
sg28
g29
sg30
F-122.89036499999999
sbsg31
(lp578
sbag1
(g2
g3
Ntp579
Rp580
(dp581
g7
g1
(g8
g3
Ntp582
Rp583
(dp584
g12
g13
sg14
F49.155525
sg15
F379.0
sg16
g187
sg18
I20151005
sg19
g59
sg21
Fnan
sg23
S'84 Avenue and 146 Street'
p585
sg25
Fnan
sg26
I2
sg27
Fnan
sg28
g29
sg30
F-122.81756200000001
sbsg31
(lp586
sbag1
(g2
g3
Ntp587
Rp588
(dp589
g7
g1
(g8
g3
Ntp590
Rp591
(dp592
g12
g13
sg14
F49.206354
sg15
F170.0
sg16
g17
sg18
I20120920
sg19
g20
sg21
g22
sg23
S'King George Blvd and 128 Street'
p593
sg25
Fnan
sg26
I4
sg27
Fnan
sg28
g29
sg30
F-122.86733100000001
sbsg31
(lp594
g1
(g33
g3
Ntp595
Rp596
(dp597
g14
F49.20644348
sg37
S'http://cosmos.surrey.ca/TrafficCameraImages/enc_kgbv_128_cam1.jpg'
p598
sg27
Fnan
sg23
S'King George Blvd And 128 St'
p599
sg30
F-122.867499
sbasbag1
(g2
g3
Ntp600
Rp601
(dp602
g7
g1
(g8
g3
Ntp603
Rp604
(dp605
g12
g13
sg14
F49.19885
sg15
F327.0
sg16
g17
sg18
I20120920
sg19
g20
sg21
g22
sg23
S'108 Avenue and 140 Street'
p606
sg25
Fnan
sg26
I4
sg27
Fnan
sg28
g29
sg30
F-122.83410500000001
sbsg31
(lp607
g1
(g33
g3
Ntp608
Rp609
(dp610
g14
F49.1987234
sg37
S'http://cosmos.surrey.ca/TrafficCameraImages/enc_108_140_cam1.jpg'
p611
sg27
Fnan
sg23
S'108 Ave And 140 St'
p612
sg30
F-122.834224
sbasbag1
(g2
g3
Ntp613
Rp614
(dp615
g7
g1
(g8
g3
Ntp616
Rp617
(dp618
g12
g13
sg14
F49.162861
sg15
F23.0
sg16
g17
sg18
I20151005
sg19
g20
sg21
g22
sg23
S'88 Avenue and 144 Street'
p619
sg25
Fnan
sg26
I4
sg27
Fnan
sg28
g29
sg30
F-122.823428
sbsg31
(lp620
g1
(g33
g3
Ntp621
Rp622
(dp623
g14
F49.16286069
sg37
S'http://cosmos.surrey.ca/TrafficCameraImages/enc_88_144_cam1.jpg'
p624
sg27
Fnan
sg23
S'88 Ave And 144 St'
p625
sg30
F-122.8234281
sbasbag1
(g2
g3
Ntp626
Rp627
(dp628
g7
g1
(g8
g3
Ntp629
Rp630
(dp631
g12
g13
sg14
F49.027434
sg15
F191.0
sg16
g17
sg18
I20120920
sg19
g59
sg21
Fnan
sg23
S'14 Avenue and 160 Street'
p632
sg25
Fnan
sg26
I4
sg27
Fnan
sg28
g29
sg30
F-122.77920400000001
sbsg31
(lp633
sbag1
(g2
g3
Ntp634
Rp635
(dp636
g7
g1
(g8
g3
Ntp637
Rp638
(dp639
g12
g13
sg14
F49.031104
sg15
F102.0
sg16
g17
sg18
I20120920
sg19
g20
sg21
g22
sg23
S'16 Avenue and 154 Street'
p640
sg25
Fnan
sg26
I4
sg27
Fnan
sg28
g29
sg30
F-122.795676
sbsg31
(lp641
g1
(g33
g3
Ntp642
Rp643
(dp644
g14
F49.031104
sg37
S'http://cosmos.surrey.ca/TrafficCameraImages/enc_16_154_cam1.jpg'
p645
sg27
Fnan
sg23
S'16 Ave And 154 St'
p646
sg30
F-122.7956855
sbasbag1
(g2
g3
Ntp647
Rp648
(dp649
g7
g1
(g8
g3
Ntp650
Rp651
(dp652
g12
g13
sg14
F49.177169
sg15
F432.0
sg16
g187
sg18
I20120920
sg19
g59
sg21
Fnan
sg23
S'96 Avenue and 123A Street'
p653
sg25
Fnan
sg26
I2
sg27
Fnan
sg28
g29
sg30
F-122.880505
sbsg31
(lp654
sbag1
(g2
g3
Ntp655
Rp656
(dp657
g7
g1
(g8
g3
Ntp658
Rp659
(dp660
g12
g13
sg14
F49.142734000000004
sg15
F253.0
sg16
g17
sg18
I20120920
sg19
g59
sg21
g22
sg23
S'77 Avenue and 140 Street'
p661
sg25
Fnan
sg26
I4
sg27
Fnan
sg28
g29
sg30
F-122.834523
sbsg31
(lp662
sbag1
(g2
g3
Ntp663
Rp664
(dp665
g7
g1
(g8
g3
Ntp666
Rp667
(dp668
g12
g13
sg14
F49.191576
sg15
F293.0
sg16
g17
sg18
I20120920
sg19
g20
sg21
g22
sg23
S'104 Avenue and Whalley Boulevard'
p669
sg25
Fnan
sg26
I4
sg27
Fnan
sg28
g29
sg30
F-122.841899
sbsg31
(lp670
g1
(g33
g3
Ntp671
Rp672
(dp673
g14
F49.19145723
sg37
S'http://cosmos.surrey.ca/TrafficCameraImages/enc_104_whalley_cam1.jpg'
p674
sg27
Fnan
sg23
S'104 Ave And Whalley Blvd'
p675
sg30
F-122.8420449
sbasbag1
(g2
g3
Ntp676
Rp677
(dp678
g7
g1
(g8
g3
Ntp679
Rp680
(dp681
g12
g13
sg14
F49.155507
sg15
Fnan
sg16
g187
sg18
I20151005
sg19
g59
sg21
Fnan
sg23
S'84 Avenue and 142 Street'
p682
sg25
Fnan
sg26
I2
sg27
Fnan
sg28
g29
sg30
F-122.82896399999998
sbsg31
(lp683
sbag1
(g2
g3
Ntp684
Rp685
(dp686
g7
g1
(g8
g3
Ntp687
Rp688
(dp689
g12
g13
sg14
F49.195848
sg15
F128.0
sg16
g17
sg18
I20160330
sg19
g20
sg21
Fnan
sg23
S'SFPR @ Tannery Rd Ramps'
p690
sg25
F2013.0
sg26
I4
sg27
Fnan
sg28
g29
sg30
F-122.892432
sbsg31
(lp691
sbag1
(g2
g3
Ntp692
Rp693
(dp694
g7
g1
(g8
g3
Ntp695
Rp696
(dp697
g12
g13
sg14
F49.184159
sg15
F142.0
sg16
g17
sg18
I20120920
sg19
g20
sg21
g22
sg23
S'100 Avenue and 148 Street'
p698
sg25
Fnan
sg26
I4
sg27
Fnan
sg28
g29
sg30
F-122.812053
sbsg31
(lp699
g1
(g33
g3
Ntp700
Rp701
(dp702
g14
F49.18429764
sg37
S'http://cosmos.surrey.ca/TrafficCameraImages/enc_100_148_cam1.jpg'
p703
sg27
Fnan
sg23
S'100 Ave And 148 St'
p704
sg30
F-122.8119064
sbasbag1
(g2
g3
Ntp705
Rp706
(dp707
g7
g1
(g8
g3
Ntp708
Rp709
(dp710
g12
g13
sg14
F49.180468
sg15
F420.0
sg16
g187
sg18
I20120920
sg19
g59
sg21
Fnan
sg23
S'98 Avenue and 152 Street'
p711
sg25
Fnan
sg26
I2
sg27
Fnan
sg28
g29
sg30
F-122.800972
sbsg31
(lp712
sbag1
(g2
g3
Ntp713
Rp714
(dp715
g7
g1
(g8
g3
Ntp716
Rp717
(dp718
g12
g13
sg14
F49.03117
sg15
F457.0
sg16
g187
sg18
I20120920
sg19
g59
sg21
Fnan
sg23
S'16 Avenue and 146 Street'
p719
sg25
Fnan
sg26
I2
sg27
Fnan
sg28
g29
sg30
F-122.817572
sbsg31
(lp720
sbag1
(g2
g3
Ntp721
Rp722
(dp723
g7
g1
(g8
g3
Ntp724
Rp725
(dp726
g12
g13
sg14
F49.133895
sg15
F259.0
sg16
g17
sg18
I20120920
sg19
g20
sg21
g22
sg23
S'72 Avenue and 128 Street'
p727
sg25
Fnan
sg26
I4
sg27
Fnan
sg28
g29
sg30
F-122.867842
sbsg31
(lp728
g1
(g33
g3
Ntp729
Rp730
(dp731
g14
F49.133792
sg37
S'http://cosmos.surrey.ca/TrafficCameraImages/enc_72_128_cam1.jpg'
p732
sg27
Fnan
sg23
S'72 Ave And 128 St'
p733
sg30
F-122.86763810000001
sbasbag1
(g2
g3
Ntp734
Rp735
(dp736
g7
g1
(g8
g3
Ntp737
Rp738
(dp739
g12
g13
sg14
F49.045681
sg15
F326.0
sg16
g17
sg18
I20120920
sg19
g59
sg21
g22
sg23
S'24 Avenue and 168 Street'
p740
sg25
Fnan
sg26
I4
sg27
Fnan
sg28
g29
sg30
F-122.75703100000001
sbsg31
(lp741
g1
(g33
g3
Ntp742
Rp743
(dp744
g14
F49.04568133
sg37
S'http://cosmos.surrey.ca/TrafficCameraImages/enc_24_168_cam1.jpg'
p745
sg27
Fnan
sg23
S'24 Ave And 168 St'
p746
sg30
F-122.75703130000001
sbasbag1
(g2
g3
Ntp747
Rp748
(dp749
g7
g1
(g8
g3
Ntp750
Rp751
(dp752
g12
g13
sg14
F49.191474
sg15
F82.0
sg16
g17
sg18
I20120920
sg19
g20
sg21
g22
sg23
S'104 Avenue and 140 Street'
p753
sg25
Fnan
sg26
I4
sg27
Fnan
sg28
g29
sg30
F-122.83413300000001
sbsg31
(lp754
g1
(g33
g3
Ntp755
Rp756
(dp757
g14
F49.19147402
sg37
S'http://cosmos.surrey.ca/TrafficCameraImages/enc_104_140_cam1.jpg'
p758
sg27
Fnan
sg23
S'104 Ave And 140 St'
p759
sg30
F-122.83413279999999
sbasbag1
(g2
g3
Ntp760
Rp761
(dp762
g7
g1
(g8
g3
Ntp763
Rp764
(dp765
g12
g13
sg14
F49.201781
sg15
F276.0
sg16
g17
sg18
I20160330
sg19
g20
sg21
Fnan
sg23
S'Bridge Rd @ Old Yale Rd (SFPR - proposed?)'
p766
sg25
F2013.0
sg26
I4
sg27
Fnan
sg28
g29
sg30
F-122.887675
sbsg31
(lp767
sbag1
(g2
g3
Ntp768
Rp769
(dp770
g7
g1
(g8
g3
Ntp771
Rp772
(dp773
g12
g13
sg14
F49.186058
sg15
F247.0
sg16
g17
sg18
I20120920
sg19
g20
sg21
Fnan
sg23
S'Old Yale Road and University Drive'
p774
sg25
Fnan
sg26
I4
sg27
Fnan
sg28
g29
sg30
F-122.85178799999998
sbsg31
(lp775
g1
(g33
g3
Ntp776
Rp777
(dp778
g14
F49.18589587
sg37
S'http://cosmos.surrey.ca/TrafficCameraImages/enc_oldyale_134a_cam1.jpg'
p779
sg27
Fnan
sg23
S'Old Yale Rd And University Dr'
p780
sg30
F-122.85162620000001
sbasbag1
(g2
g3
Ntp781
Rp782
(dp783
g7
g1
(g8
g3
Ntp784
Rp785
(dp786
g12
g13
sg14
F49.188041
sg15
F53.0
sg16
g17
sg18
I20120920
sg19
g20
sg21
g22
sg23
S'102 Avenue and 128 Street'
p787
sg25
Fnan
sg26
I4
sg27
Fnan
sg28
g29
sg30
F-122.867695
sbsg31
(lp788
g1
(g33
g3
Ntp789
Rp790
(dp791
g14
F49.18804067
sg37
S'http://cosmos.surrey.ca/TrafficCameraImages/enc_102_128_cam1.jpg'
p792
sg27
Fnan
sg23
S'102 Ave And 128 St'
p793
sg30
F-122.86769450000001
sbasbag1
(g2
g3
Ntp794
Rp795
(dp796
g7
g1
(g8
g3
Ntp797
Rp798
(dp799
g12
g13
sg14
F49.187810999999996
sg15
F72.0
sg16
g17
sg18
I20120920
sg19
g20
sg21
Fnan
sg23
S'102 Avenue and Whalley Boulevard'
p800
sg25
Fnan
sg26
I4
sg27
Fnan
sg28
g29
sg30
F-122.84323400000001
sbsg31
(lp801
sbag1
(g2
g3
Ntp802
Rp803
(dp804
g7
g1
(g8
g3
Ntp805
Rp806
(dp807
g12
g13
sg14
F49.196401
sg15
Fnan
sg16
g17
sg18
I20160330
sg19
Fnan
sg21
Fnan
sg23
S'SFPR & Tannery Rd Ramps'
p808
sg25
F2013.0
sg26
I4
sg27
Fnan
sg28
g29
sg30
F-122.89352199999999
sbsg31
(lp809
sbag1
(g2
g3
Ntp810
Rp811
(dp812
g7
g1
(g8
g3
Ntp813
Rp814
(dp815
g12
g13
sg14
F49.038886
sg15
Fnan
sg16
g402
sg18
I20160413
sg19
Fnan
sg21
Fnan
sg23
Fnan
sg25
Fnan
sg26
I1
sg27
Fnan
sg28
g29
sg30
F-122.735231
sbsg31
(lp816
sbag1
(g2
g3
Ntp817
Rp818
(dp819
g7
g1
(g8
g3
Ntp820
Rp821
(dp822
g12
g13
sg14
F49.191492
sg15
Fnan
sg16
g17
sg18
I20160413
sg19
Fnan
sg21
Fnan
sg23
S'104 Ave & South Fraser Perimeter Rd'
p823
sg25
F2014.0
sg26
I4
sg27
Fnan
sg28
g29
sg30
F-122.738171
sbsg31
(lp824
sbag1
(g2
g3
Ntp825
Rp826
(dp827
g7
g1
(g8
g3
Ntp828
Rp829
(dp830
g12
g13
sg14
F49.14817
sg15
Fnan
sg16
g17
sg18
I20160316
sg19
Fnan
sg21
Fnan
sg23
Fnan
sg25
F2015.0
sg26
I4
sg27
Fnan
sg28
g29
sg30
F-122.69071399999999
sbsg31
(lp831
sbag1
(g2
g3
Ntp832
Rp833
(dp834
g7
g1
(g8
g3
Ntp835
Rp836
(dp837
g12
g13
sg14
F49.196506
sg15
Fnan
sg16
g17
sg18
I20160331
sg19
Fnan
sg21
Fnan
sg23
Fnan
sg25
F2014.0
sg26
I4
sg27
Fnan
sg28
g29
sg30
F-122.896821
sbsg31
(lp838
sbag1
(g2
g3
Ntp839
Rp840
(dp841
g7
g1
(g8
g3
Ntp842
Rp843
(dp844
g12
g13
sg14
F49.119107
sg15
F393.0
sg16
g17
sg18
I20141210
sg19
g59
sg21
Fnan
sg23
S'64 Avenue and 142 Street'
p845
sg25
F2014.0
sg26
I4
sg27
Fnan
sg28
g29
sg30
F-122.82881
sbsg31
(lp846
g1
(g33
g3
Ntp847
Rp848
(dp849
g14
F49.11910729
sg37
S'http://cosmos.surrey.ca/TrafficCameraImages/enc_64_142_cam1.jpg'
p850
sg27
Fnan
sg23
S'64 Ave And 142 St'
p851
sg30
F-122.82881019999999
sbasbag1
(g2
g3
Ntp852
Rp853
(dp854
g7
g1
(g8
g3
Ntp855
Rp856
(dp857
g12
g13
sg14
F49.198910999999995
sg15
F54.0
sg16
g17
sg18
I20150923
sg19
g20
sg21
g22
sg23
S'108 Avenue and University Drive'
p858
sg25
Fnan
sg26
I4
sg27
Fnan
sg28
g29
sg30
F-122.85084199999999
sbsg31
(lp859
g1
(g33
g3
Ntp860
Rp861
(dp862
g14
F49.19879504
sg37
S'http://cosmos.surrey.ca/TrafficCameraImages/enc_universitydr_108_cam1.jpg'
p863
sg27
Fnan
sg23
S'108 Ave And University Dr'
p864
sg30
F-122.85105060000001
sbasbag1
(g2
g3
Ntp865
Rp866
(dp867
g7
g1
(g8
g3
Ntp868
Rp869
(dp870
g12
g13
sg14
F49.141084
sg15
F235.0
sg16
g17
sg18
I20150923
sg19
g20
sg21
g22
sg23
S'76 Avenue and 152 Street'
p871
sg25
Fnan
sg26
I4
sg27
Fnan
sg28
g29
sg30
F-122.801125
sbsg31
(lp872
g1
(g33
g3
Ntp873
Rp874
(dp875
g14
F49.14108367
sg37
S'http://cosmos.surrey.ca/TrafficCameraImages/enc_76_152_cam1.jpg'
p876
sg27
Fnan
sg23
S'76 Ave And 152 St'
p877
sg30
F-122.8011247
sbasbag1
(g2
g3
Ntp878
Rp879
(dp880
g7
g1
(g8
g3
Ntp881
Rp882
(dp883
g12
g13
sg14
F49.179066999999996
sg15
Fnan
sg16
g187
sg18
I20131016
sg19
Fnan
sg21
Fnan
sg23
S'Green Timbers Way and Staff Access'
p884
sg25
F2012.0
sg26
I2
sg27
Fnan
sg28
g29
sg30
F-122.82933700000001
sbsg31
(lp885
sbag1
(g2
g3
Ntp886
Rp887
(dp888
g7
g1
(g8
g3
Ntp889
Rp890
(dp891
g12
g13
sg14
F49.178305
sg15
Fnan
sg16
g17
sg18
I20131016
sg19
Fnan
sg21
Fnan
sg23
S'Green Timbers Way and Public Acces'
p892
sg25
F2013.0
sg26
I4
sg27
Fnan
sg28
g29
sg30
F-122.827469
sbsg31
(lp893
sbag1
(g2
g3
Ntp894
Rp895
(dp896
g7
g1
(g8
g3
Ntp897
Rp898
(dp899
g12
g13
sg14
F49.188736
sg15
F80.0
sg16
g17
sg18
I20140123
sg19
g20
sg21
g22
sg23
S'102A Avenue and 152 Street'
p900
sg25
F2013.0
sg26
I4
sg27
Fnan
sg28
g29
sg30
F-122.80089299999999
sbsg31
(lp901
g1
(g33
g3
Ntp902
Rp903
(dp904
g14
F49.18907306
sg37
S'http://cosmos.surrey.ca/TrafficCameraImages/enc_10300blk_152_cam1.jpg'
p905
sg27
Fnan
sg23
S'102A Ave And 152 St'
p906
sg30
F-122.801073
sbasbag1
(g2
g3
Ntp907
Rp908
(dp909
g7
g1
(g8
g3
Ntp910
Rp911
(dp912
g12
g13
sg14
F49.188875
sg15
F462.0
sg16
g17
sg18
I20140123
sg19
g59
sg21
S'No'
p913
sg23
S'102A Avenue and 150 Street'
p914
sg25
F2013.0
sg26
I4
sg27
Fnan
sg28
g29
sg30
F-122.806451
sbsg31
(lp915
g1
(g33
g3
Ntp916
Rp917
(dp918
g14
F49.18887483
sg37
S'http://cosmos.surrey.ca/TrafficCameraImages/enc_102a_150_cam1.jpg'
p919
sg27
Fnan
sg23
S'102A Ave And 150 St'
p920
sg30
F-122.8064513
sbasbag1
(g2
g3
Ntp921
Rp922
(dp923
g7
g1
(g8
g3
Ntp924
Rp925
(dp926
g12
g13
sg14
F49.119172999999996
sg15
Fnan
sg16
g17
sg18
I20141210
sg19
g59
sg21
Fnan
sg23
S'64 Avenue and 126 Street'
p927
sg25
F2014.0
sg26
I4
sg27
Fnan
sg28
g29
sg30
F-122.873415
sbsg31
(lp928
g1
(g33
g3
Ntp929
Rp930
(dp931
g14
F49.11917346
sg37
S'http://cosmos.surrey.ca/TrafficCameraImages/enc_64_126_cam1.jpg'
p932
sg27
Fnan
sg23
S'64 Ave And 126 St'
p933
sg30
F-122.87341470000001
sbasbag1
(g2
g3
Ntp934
Rp935
(dp936
g7
g1
(g8
g3
Ntp937
Rp938
(dp939
g12
g13
sg14
F49.193895
sg15
F232.0
sg16
g17
sg18
I20150212
sg19
g20
sg21
Fnan
sg23
S'Scott Road and Tannery Road'
p940
sg25
F2014.0
sg26
I4
sg27
Fnan
sg28
g29
sg30
F-122.888768
sbsg31
(lp941
sbag1
(g2
g3
Ntp942
Rp943
(dp944
g7
g1
(g8
g3
Ntp945
Rp946
(dp947
g12
g13
sg14
F49.191476
sg15
F257.0
sg16
g17
sg18
I20150312
sg19
g20
sg21
g22
sg23
S'104 Avenue and 152 Street'
p948
sg25
F2013.0
sg26
I4
sg27
Fnan
sg28
g29
sg30
F-122.80088
sbsg31
(lp949
g1
(g33
g3
Ntp950
Rp951
(dp952
g14
F49.19128428
sg37
S'http://cosmos.surrey.ca/TrafficCameraImages/enc_104_152_cam1.jpg'
p953
sg27
Fnan
sg23
S'104 Ave And 152 St'
p954
sg30
F-122.801057
sbasbag1
(g2
g3
Ntp955
Rp956
(dp957
g7
g1
(g8
g3
Ntp958
Rp959
(dp960
g12
g13
sg14
F49.168285
sg15
F238.0
sg16
g17
sg18
I20150923
sg19
g20
sg21
Fnan
sg23
S'91 Avenue and 152 Street'
p961
sg25
Fnan
sg26
I4
sg27
Fnan
sg28
g29
sg30
F-122.80133000000001
sbsg31
(lp962
g1
(g33
g3
Ntp963
Rp964
(dp965
g14
F49.16828524
sg37
S'http://cosmos.surrey.ca/TrafficCameraImages/enc_91_152_cam1.jpg'
p966
sg27
Fnan
sg23
S'91 Ave And 152 St'
p967
sg30
F-122.80133020000001
sbasbag1
(g2
g3
Ntp968
Rp969
(dp970
g7
g1
(g8
g3
Ntp971
Rp972
(dp973
g12
g13
sg14
F49.175517
sg15
F421.0
sg16
g187
sg18
I20150923
sg19
g20
sg21
Fnan
sg23
S'95 Avenue and 152 Street'
p974
sg25
Fnan
sg26
I2
sg27
Fnan
sg28
g29
sg30
F-122.801075
sbsg31
(lp975
sbag1
(g2
g3
Ntp976
Rp977
(dp978
g7
g1
(g8
g3
Ntp979
Rp980
(dp981
g12
g13
sg14
F49.166106
sg15
F116.0
sg16
g17
sg18
I20150923
sg19
g20
sg21
g22
sg23
S'Fraser Highway and 152 Street'
p982
sg25
Fnan
sg26
I4
sg27
Fnan
sg28
g29
sg30
F-122.801401
sbsg31
(lp983
g1
(g33
g3
Ntp984
Rp985
(dp986
g14
F49.16589869
sg37
S'http://cosmos.surrey.ca/TrafficCameraImages/enc_fraser_152_cam1.jpg'
p987
sg27
Fnan
sg23
S'Fraser Hwy And 152 St'
p988
sg30
F-122.80125020000001
sbasbag1
(g2
g3
Ntp989
Rp990
(dp991
g7
g1
(g8
g3
Ntp992
Rp993
(dp994
g12
g13
sg14
F49.176840999999996
sg15
F35.0
sg16
g17
sg18
I20150923
sg19
g20
sg21
g22
sg23
S'96 Avenue and 152 Street'
p995
sg25
Fnan
sg26
I4
sg27
Fnan
sg28
g29
sg30
F-122.801027
sbsg31
(lp996
g1
(g33
g3
Ntp997
Rp998
(dp999
g14
F49.17671782
sg37
S'http://cosmos.surrey.ca/TrafficCameraImages/enc_96_152_cam1.jpg'
p1000
sg27
Fnan
sg23
S'96 Ave And 152 St'
p1001
sg30
F-122.80084240000001
sbasbag1
(g2
g3
Ntp1002
Rp1003
(dp1004
g7
g1
(g8
g3
Ntp1005
Rp1006
(dp1007
g12
g13
sg14
F49.197542999999996
sg15
Fnan
sg16
g17
sg18
I20160128
sg19
Fnan
sg21
Fnan
sg23
S'Old Yale Road and 124 Street'
p1008
sg25
F2015.0
sg26
I4
sg27
Fnan
sg28
g29
sg30
F-122.87870900000001
sbsg31
(lp1009
g1
(g33
g3
Ntp1010
Rp1011
(dp1012
g14
F49.19754275
sg37
S'http://cosmos.surrey.ca/TrafficCameraImages/enc_oldyale_124_cam1.jpg'
p1013
sg27
Fnan
sg23
S'Old Yale Rd And 124 St'
p1014
sg30
F-122.8787087
sbasbag1
(g2
g3
Ntp1015
Rp1016
(dp1017
g7
g1
(g8
g3
Ntp1018
Rp1019
(dp1020
g12
g13
sg14
F49.169761
sg15
F408.0
sg16
g17
sg18
I20130603
sg19
g59
sg21
Fnan
sg23
S'Moved? Harvie Rd, 192 St, Hwy 1'
p1021
sg25
Fnan
sg26
I4
sg27
Fnan
sg28
g29
sg30
F-122.69309799999999
sbsg31
(lp1022
sbag1
(g2
g3
Ntp1023
Rp1024
(dp1025
g7
g1
(g8
g3
Ntp1026
Rp1027
(dp1028
g12
g13
sg14
F49.179987
sg15
F42.0
sg16
g17
sg18
I20130603
sg19
g59
sg21
Fnan
sg23
S'Moved? Hwy 15, Hwy 1 South Side Exit'
p1029
sg25
Fnan
sg26
I4
sg27
Fnan
sg28
g29
sg30
F-122.73478100000001
sbsg31
(lp1030
sbag1
(g2
g3
Ntp1031
Rp1032
(dp1033
g7
g1
(g8
g3
Ntp1034
Rp1035
(dp1036
g12
g13
sg14
F49.071653999999995
sg15
F139.0
sg16
g17
sg18
I20130603
sg19
g59
sg21
Fnan
sg23
S'Middle of off-ramp, KGB, Elgin Rd, Park & Ride?'
p1037
sg25
Fnan
sg26
I4
sg27
Fnan
sg28
g29
sg30
F-122.82396200000001
sbsg31
(lp1038
sbag1
(g2
g3
Ntp1039
Rp1040
(dp1041
g7
g1
(g8
g3
Ntp1042
Rp1043
(dp1044
g12
g13
sg14
F49.104147
sg15
F314.0
sg16
g17
sg18
I20130603
sg19
g59
sg21
Fnan
sg23
S'Hwy 10 & 176 St'
p1045
sg25
Fnan
sg26
I4
sg27
Fnan
sg28
g29
sg30
F-122.73495700000001
sbsg31
(lp1046
sbag1
(g2
g3
Ntp1047
Rp1048
(dp1049
g7
g1
(g8
g3
Ntp1050
Rp1051
(dp1052
g12
g13
sg14
F49.191738
sg15
F288.0
sg16
g17
sg18
I20130603
sg19
g59
sg21
Fnan
sg23
S'Moved? Hwy 1, 160 St, 104 Ave'
p1053
sg25
Fnan
sg26
I4
sg27
Fnan
sg28
g29
sg30
F-122.780827
sbsg31
(lp1054
sbag1
(g2
g3
Ntp1055
Rp1056
(dp1057
g7
g1
(g8
g3
Ntp1058
Rp1059
(dp1060
g12
g13
sg14
F49.176402
sg15
F297.0
sg16
g17
sg18
I20130603
sg19
g59
sg21
Fnan
sg23
S'Moved? 96 Ave & Golden Ears, nr Hwy 1'
p1061
sg25
Fnan
sg26
I4
sg27
Fnan
sg28
g29
sg30
F-122.73461299999998
sbsg31
(lp1062
sbag1
(g2
g3
Ntp1063
Rp1064
(dp1065
g7
g1
(g8
g3
Ntp1066
Rp1067
(dp1068
g12
g13
sg14
F49.111803
sg15
Fnan
sg16
g17
sg18
I20160202
sg19
Fnan
sg21
Fnan
sg23
S'128 St & 24 Ave'
p1069
sg25
F2015.0
sg26
I4
sg27
Fnan
sg28
g29
sg30
F-122.867847
sbsg31
(lp1070
g1
(g33
g3
Ntp1071
Rp1072
(dp1073
g14
F49.11180329
sg37
S'http://cosmos.surrey.ca/TrafficCameraImages/enc_60_128_cam1.jpg'
p1074
sg27
Fnan
sg23
S'60 Ave And 128 St'
p1075
sg30
F-122.86784709999999
sbasbag1
(g2
g3
Ntp1076
Rp1077
(dp1078
g7
g1
(g8
g3
Ntp1079
Rp1080
(dp1081
g12
g13
sg14
F49.190816
sg15
F152.0
sg16
g17
sg18
I20160302
sg19
g59
sg21
Fnan
sg23
g1053
sg25
Fnan
sg26
I4
sg27
Fnan
sg28
g29
sg30
F-122.77824299999999
sbsg31
(lp1082
sbag1
(g2
g3
Ntp1083
Rp1084
(dp1085
g7
g1
(g8
g3
Ntp1086
Rp1087
(dp1088
g12
g13
sg14
F49.045662
sg15
F374.0
sg16
g17
sg18
I20121212
sg19
g59
sg21
g22
sg23
S'24 Avenue and 192 Street'
p1089
sg25
F2010.0
sg26
I4
sg27
Fnan
sg28
g29
sg30
F-122.69140300000001
sbsg31
(lp1090
g1
(g33
g3
Ntp1091
Rp1092
(dp1093
g14
F49.04557417
sg37
S'http://cosmos.surrey.ca/TrafficCameraImages/enc_24_192_cam1.jpg'
p1094
sg27
Fnan
sg23
S'24 Ave And 192 St'
p1095
sg30
F-122.6912768
sbasbag1
(g2
g3
Ntp1096
Rp1097
(dp1098
g7
g1
(g8
g3
Ntp1099
Rp1100
(dp1101
g12
g13
sg14
F49.172343
sg15
Fnan
sg16
g187
sg18
I20121212
sg19
Fnan
sg21
Fnan
sg23
S'Huntley Avenue and 132 Street'
p1102
sg25
F2012.0
sg26
I2
sg27
Fnan
sg28
g29
sg30
F-122.856858
sbsg31
(lp1103
sbag1
(g2
g3
Ntp1104
Rp1105
(dp1106
g7
g1
(g8
g3
Ntp1107
Rp1108
(dp1109
g12
g13
sg14
F49.061296999999996
sg15
F216.0
sg16
g17
sg18
I20150306
sg19
g59
sg21
Fnan
sg23
S'KGB & 148 Street/32A Avenue'
p1110
sg25
Fnan
sg26
I4
sg27
Fnan
sg28
g29
sg30
F-122.813033
sbsg31
(lp1111
g1
(g33
g3
Ntp1112
Rp1113
(dp1114
g14
F49.06130105
sg37
S'http://cosmos.surrey.ca/TrafficCameraImages/enc_kgbv_148_cam1.jpg'
p1115
sg27
Fnan
sg23
S'King George Blvd And 148 St'
p1116
sg30
F-122.81303500000001
sbasbag1
(g2
g3
Ntp1117
Rp1118
(dp1119
g7
g1
(g8
g3
Ntp1120
Rp1121
(dp1122
g12
g13
sg14
F49.045563
sg15
F223.0
sg16
g187
sg18
I20150306
sg19
g59
sg21
Fnan
sg23
S'24 Avenue and 161 Street'
p1123
sg25
Fnan
sg26
I2
sg27
Fnan
sg28
g29
sg30
F-122.77696399999999
sbsg31
(lp1124
sbag1
(g2
g3
Ntp1125
Rp1126
(dp1127
g7
g1
(g8
g3
Ntp1128
Rp1129
(dp1130
g12
g13
sg14
F49.045571
sg15
F295.0
sg16
g17
sg18
I20150306
sg19
g59
sg21
g22
sg23
S'24 Avenue and 161A Street'
p1131
sg25
F2011.0
sg26
I4
sg27
Fnan
sg28
g29
sg30
F-122.77534399999999
sbsg31
(lp1132
sbag1
(g2
g3
Ntp1133
Rp1134
(dp1135
g7
g1
(g8
g3
Ntp1136
Rp1137
(dp1138
g12
g13
sg14
F49.191629999999996
sg15
F167.0
sg16
g17
sg18
I20150703
sg19
g59
sg21
Fnan
sg23
S'104 Avenue and City Parkway'
p1139
sg25
F2013.0
sg26
I4
sg27
Fnan
sg28
g29
sg30
F-122.84768400000002
sbsg31
(lp1140
g1
(g33
g3
Ntp1141
Rp1142
(dp1143
g14
F49.19163148
sg37
S'http://cosmos.surrey.ca/TrafficCameraImages/enc_104_cityparkway_cam1.jpg'
p1144
sg27
Fnan
sg23
S'104 Ave And City Parkway'
p1145
sg30
F-122.8480186
sbag1
(g33
g3
Ntp1146
Rp1147
(dp1148
g14
F49.19163148
sg37
S'http://cosmos.surrey.ca/TrafficCameraImages/enc_104_cityparkway_cam2.jpg'
p1149
sg27
Fnan
sg23
g1145
sg30
F-122.8480186
sbasbag1
(g2
g3
Ntp1150
Rp1151
(dp1152
g7
g1
(g8
g3
Ntp1153
Rp1154
(dp1155
g12
g13
sg14
F49.190118
sg15
Fnan
sg16
g17
sg18
I20150703
sg19
Fnan
sg21
Fnan
sg23
S'King George Blvd and 103 Avenue'
p1156
sg25
F2013.0
sg26
I4
sg27
Fnan
sg28
g29
sg30
F-122.84536999999999
sbsg31
(lp1157
g1
(g33
g3
Ntp1158
Rp1159
(dp1160
g14
F49.19011792
sg37
S'http://cosmos.surrey.ca/TrafficCameraImages/enc_103_kgbv_cam1.jpg'
p1161
sg27
Fnan
sg23
S'103 Ave And King George Blvd'
p1162
sg30
F-122.84537040000001
sbasbag1
(g2
g3
Ntp1163
Rp1164
(dp1165
g7
g1
(g8
g3
Ntp1166
Rp1167
(dp1168
g12
g13
sg14
F49.049085999999996
sg15
F331.0
sg16
g17
sg18
I20141217
sg19
g59
sg21
g22
sg23
S'King George Blvd and 26 Avenue'
p1169
sg25
Fnan
sg26
I4
sg27
Fnan
sg28
g29
sg30
F-122.79788700000002
sbsg31
(lp1170
g1
(g33
g3
Ntp1171
Rp1172
(dp1173
g14
F49.04922803
sg37
S'http://cosmos.surrey.ca/TrafficCameraImages/enc_26_kgbv_cam1.jpg'
p1174
sg27
Fnan
sg23
S'26 Ave And King George Blvd'
p1175
sg30
F-122.79806289999999
sbasbag1
(g2
g3
Ntp1176
Rp1177
(dp1178
g7
g1
(g8
g3
Ntp1179
Rp1180
(dp1181
g12
g13
sg14
F49.038409
sg15
F159.0
sg16
g17
sg18
I20141217
sg19
g59
sg21
g22
sg23
S'20 Avenue and 148 Street'
p1182
sg25
Fnan
sg26
I4
sg27
Fnan
sg28
g29
sg30
F-122.812238
sbsg31
(lp1183
g1
(g33
g3
Ntp1184
Rp1185
(dp1186
g14
F49.03840852
sg37
S'http://cosmos.surrey.ca/TrafficCameraImages/enc_20_148_cam1.jpg'
p1187
sg27
Fnan
sg23
S'20 Ave And 148 St'
p1188
sg30
F-122.81223899999999
sbasbag1
(g2
g3
Ntp1189
Rp1190
(dp1191
g7
g1
(g8
g3
Ntp1192
Rp1193
(dp1194
g12
g13
sg14
F49.113353000000004
sg15
Fnan
sg16
g380
sg18
I20121213
sg19
Fnan
sg21
Fnan
sg23
Fnan
sg25
F2009.0
sg26
I3
sg27
Fnan
sg28
g29
sg30
F-122.75661000000001
sbsg31
(lp1195
sbag1
(g2
g3
Ntp1196
Rp1197
(dp1198
g7
g1
(g8
g3
Ntp1199
Rp1200
(dp1201
g12
g13
sg14
F49.034642
sg15
F366.0
sg16
g380
sg18
I20111222
sg19
g59
sg21
Fnan
sg23
Fnan
sg25
Fnan
sg26
I3
sg27
Fnan
sg28
g29
sg30
F-122.8031
sbsg31
(lp1202
sbag1
(g2
g3
Ntp1203
Rp1204
(dp1205
g7
g1
(g8
g3
Ntp1206
Rp1207
(dp1208
g12
g13
sg14
F49.128733000000004
sg15
F168.0
sg16
g17
sg18
I20141217
sg19
g20
sg21
g22
sg23
S'Fraser Highway and 184 Street'
p1209
sg25
Fnan
sg26
I4
sg27
Fnan
sg28
g29
sg30
F-122.712544
sbsg31
(lp1210
g1
(g33
g3
Ntp1211
Rp1212
(dp1213
g14
F49.12882495
sg37
S'http://cosmos.surrey.ca/TrafficCameraImages/enc_fraser_184_cam1.jpg'
p1214
sg27
Fnan
sg23
S'Fraser Hwy And 184 St'
p1215
sg30
F-122.71239229999999
sbasbag1
(g2
g3
Ntp1216
Rp1217
(dp1218
g7
g1
(g8
g3
Ntp1219
Rp1220
(dp1221
g12
g13
sg14
F49.204608
sg15
F439.0
sg16
g380
sg18
I20111222
sg19
g59
sg21
Fnan
sg23
Fnan
sg25
Fnan
sg26
I3
sg27
Fnan
sg28
g29
sg30
F-122.877673
sbsg31
(lp1222
sbag1
(g2
g3
Ntp1223
Rp1224
(dp1225
g7
g1
(g8
g3
Ntp1226
Rp1227
(dp1228
g12
g13
sg14
F49.052802
sg15
F384.0
sg16
g380
sg18
I20111222
sg19
g59
sg21
Fnan
sg23
Fnan
sg25
Fnan
sg26
I3
sg27
Fnan
sg28
g29
sg30
F-122.713443
sbsg31
(lp1229
sbag1
(g2
g3
Ntp1230
Rp1231
(dp1232
g7
g1
(g8
g3
Ntp1233
Rp1234
(dp1235
g12
g13
sg14
F49.1888
sg15
F358.0
sg16
g17
sg18
I20140407
sg19
g59
sg21
g22
sg23
S'102A Avenue and 154 Street'
p1236
sg25
F2013.0
sg26
I4
sg27
Fnan
sg28
g29
sg30
F-122.795331
sbsg31
(lp1237
sbag1
(g2
g3
Ntp1238
Rp1239
(dp1240
g7
g1
(g8
g3
Ntp1241
Rp1242
(dp1243
g12
g13
sg14
F49.183091
sg15
Fnan
sg16
g402
sg18
I20141217
sg19
Fnan
sg21
Fnan
sg23
S'176 St, North of Hwy 1'
p1244
sg25
Fnan
sg26
I1
sg27
Fnan
sg28
g29
sg30
F-122.73468999999999
sbsg31
(lp1245
sbag1
(g2
g3
Ntp1246
Rp1247
(dp1248
g7
g1
(g8
g3
Ntp1249
Rp1250
(dp1251
g12
g13
sg14
F49.045608
sg15
Fnan
sg16
g380
sg18
I20111222
sg19
g59
sg21
Fnan
sg23
Fnan
sg25
Fnan
sg26
I3
sg27
Fnan
sg28
g29
sg30
F-122.797523
sbsg31
(lp1252
sbag1
(g2
g3
Ntp1253
Rp1254
(dp1255
g7
g1
(g8
g3
Ntp1256
Rp1257
(dp1258
g12
g13
sg14
F49.197393
sg15
Fnan
sg16
g187
sg18
I20121213
sg19
Fnan
sg21
Fnan
sg23
S'King George Blvd and 107A Avenue'
p1259
sg25
F2009.0
sg26
I2
sg27
Fnan
sg28
g29
sg30
F-122.845336
sbsg31
(lp1260
g1
(g33
g3
Ntp1261
Rp1262
(dp1263
g14
F49.19742792
sg37
S'http://cosmos.surrey.ca/TrafficCameraImages/enc_107a_kgbv_cam1.jpg'
p1264
sg27
Fnan
sg23
S'107A Ave And King George Blvd'
p1265
sg30
F-122.84526709999999
sbag1
(g33
g3
Ntp1266
Rp1267
(dp1268
g14
F49.19733253
sg37
S'http://cosmos.surrey.ca/TrafficCameraImages/enc_107a_kgbv_cam2.jpg'
p1269
sg27
Fnan
sg23
g1265
sg30
F-122.84539029999999
sbasbag1
(g2
g3
Ntp1270
Rp1271
(dp1272
g7
g1
(g8
g3
Ntp1273
Rp1274
(dp1275
g12
g13
sg14
F49.125710999999995
sg15
Fnan
sg16
g17
sg18
I20111222
sg19
g59
sg21
Fnan
sg23
Fnan
sg25
F2011.0
sg26
I4
sg27
Fnan
sg28
g29
sg30
F-122.70616499999998
sbsg31
(lp1276
g1
(g33
g3
Ntp1277
Rp1278
(dp1279
g14
F49.12571523
sg37
S'http://cosmos.surrey.ca/TrafficCameraImages/enc_68_fraser_cam1.jpg'
p1280
sg27
Fnan
sg23
S'68 Ave And Fraser Hwy'
p1281
sg30
F-122.70617340000001
sbag1
(g33
g3
Ntp1282
Rp1283
(dp1284
g14
F49.1256936
sg37
S'http://cosmos.surrey.ca/TrafficCameraImages/enc_68_fraser_cam2.jpg'
p1285
sg27
Fnan
sg23
g1281
sg30
F-122.70616670000001
sbasbag1
(g2
g3
Ntp1286
Rp1287
(dp1288
g7
g1
(g8
g3
Ntp1289
Rp1290
(dp1291
g12
g13
sg14
F49.184231
sg15
Fnan
sg16
g187
sg18
I20121213
sg19
g59
sg21
g913
sg23
S'100 Avenue and 153 Street'
p1292
sg25
F2012.0
sg26
I2
sg27
Fnan
sg28
g29
sg30
F-122.79813500000002
sbsg31
(lp1293
sbag1
(g2
g3
Ntp1294
Rp1295
(dp1296
g7
g1
(g8
g3
Ntp1297
Rp1298
(dp1299
g12
g13
sg14
F49.046757
sg15
Fnan
sg16
S'Beacons'
p1300
sg18
I20111222
sg19
Fnan
sg21
g22
sg23
S'Croydon Drive and Mall Access'
p1301
sg25
F2011.0
sg26
I0
sg27
Fnan
sg28
g29
sg30
F-122.78446399999999
sbsg31
(lp1302
sbag1
(g2
g3
Ntp1303
Rp1304
(dp1305
g7
g1
(g8
g3
Ntp1306
Rp1307
(dp1308
g12
g13
sg14
F49.111841999999996
sg15
F158.0
sg16
g17
sg18
I20120611
sg19
g59
sg21
g22
sg23
S'60 Avenue and 144 Street'
p1309
sg25
F2010.0
sg26
I4
sg27
Fnan
sg28
g29
sg30
F-122.82330800000001
sbsg31
(lp1310
g1
(g33
g3
Ntp1311
Rp1312
(dp1313
g14
F49.11184185
sg37
S'http://cosmos.surrey.ca/TrafficCameraImages/enc_60_144_cam1.jpg'
p1314
sg27
Fnan
sg23
S'60 Ave And 144 St'
p1315
sg30
F-122.82330790000002
sbasbag1
(g2
g3
Ntp1316
Rp1317
(dp1318
g7
g1
(g8
g3
Ntp1319
Rp1320
(dp1321
g12
g13
sg14
F49.126494
sg15
Fnan
sg16
g1300
sg18
I20121213
sg19
Fnan
sg21
Fnan
sg23
Fnan
sg25
F2009.0
sg26
I0
sg27
Fnan
sg28
g29
sg30
F-122.8622
sbsg31
(lp1322
sbag1
(g2
g3
Ntp1323
Rp1324
(dp1325
g7
g1
(g8
g3
Ntp1326
Rp1327
(dp1328
g12
g13
sg14
F49.126317
sg15
Fnan
sg16
g1300
sg18
I20121213
sg19
Fnan
sg21
Fnan
sg23
S'68 Ave & 134 St'
p1329
sg25
F2009.0
sg26
I0
sg27
Fnan
sg28
g29
sg30
F-122.851115
sbsg31
(lp1330
sbag1
(g2
g3
Ntp1331
Rp1332
(dp1333
g7
g1
(g8
g3
Ntp1334
Rp1335
(dp1336
g12
g13
sg14
F49.119021000000004
sg15
F60.0
sg16
g17
sg18
I20121213
sg19
g59
sg21
g22
sg23
S'64 Avenue and 134 Street'
p1337
sg25
F2011.0
sg26
I4
sg27
Fnan
sg28
g29
sg30
F-122.850996
sbsg31
(lp1338
g1
(g33
g3
Ntp1339
Rp1340
(dp1341
g14
F49.11902103
sg37
S'http://cosmos.surrey.ca/TrafficCameraImages/enc_64_134_cam1.jpg'
p1342
sg27
Fnan
sg23
S'64 Ave And 134 St'
p1343
sg30
F-122.85099620000001
sbasbag1
(g2
g3
Ntp1344
Rp1345
(dp1346
g7
g1
(g8
g3
Ntp1347
Rp1348
(dp1349
g12
g13
sg14
F49.116485
sg15
Fnan
sg16
g187
sg18
I20121213
sg19
Fnan
sg21
Fnan
sg23
S'63 Avenue and 168 Street'
p1350
sg25
F2009.0
sg26
I2
sg27
Fnan
sg28
g29
sg30
F-122.756579
sbsg31
(lp1351
sbag1
(g2
g3
Ntp1352
Rp1353
(dp1354
g7
g1
(g8
g3
Ntp1355
Rp1356
(dp1357
g12
g13
sg14
F49.182534999999994
sg15
Fnan
sg16
g187
sg18
I20121213
sg19
Fnan
sg21
Fnan
sg23
Fnan
sg25
Fnan
sg26
I2
sg27
Fnan
sg28
g29
sg30
F-122.800941
sbsg31
(lp1358
sbag1
(g2
g3
Ntp1359
Rp1360
(dp1361
g7
g1
(g8
g3
Ntp1362
Rp1363
(dp1364
g12
g13
sg14
F49.182534999999994
sg15
Fnan
sg16
g187
sg18
I20121213
sg19
g59
sg21
g913
sg23
S'99 Avenue and 152 Street'
p1365
sg25
F2009.0
sg26
I2
sg27
Fnan
sg28
g29
sg30
F-122.800941
sbsg31
(lp1366
sbag1
(g2
g3
Ntp1367
Rp1368
(dp1369
g7
g1
(g8
g3
Ntp1370
Rp1371
(dp1372
g12
g13
sg14
F49.04811
sg15
F352.0
sg16
g1300
sg18
I20140407
sg19
g59
sg21
Fnan
sg23
Fnan
sg25
Fnan
sg26
I0
sg27
Fnan
sg28
g29
sg30
F-122.867374
sbsg31
(lp1373
sbag1
(g2
g3
Ntp1374
Rp1375
(dp1376
g7
g1
(g8
g3
Ntp1377
Rp1378
(dp1379
g12
g13
sg14
F49.189318
sg15
Fnan
sg16
g380
sg18
I20140407
sg19
Fnan
sg21
Fnan
sg23
S'102B Ave & 156 St'
p1380
sg25
F2012.0
sg26
I3
sg27
Fnan
sg28
g29
sg30
F-122.789763
sbsg31
(lp1381
sbag1
(g2
g3
Ntp1382
Rp1383
(dp1384
g7
g1
(g8
g3
Ntp1385
Rp1386
(dp1387
g12
g13
sg14
F49.191614
sg15
Fnan
sg16
g17
sg18
I20140407
sg19
Fnan
sg21
g22
sg23
S'104 Avenue and 168 Street'
p1388
sg25
Fnan
sg26
I4
sg27
Fnan
sg28
g29
sg30
F-122.756474
sbsg31
(lp1389
g1
(g33
g3
Ntp1390
Rp1391
(dp1392
g14
F49.19161357
sg37
S'http://cosmos.surrey.ca/TrafficCameraImages/enc_104_168_cam1.jpg'
p1393
sg27
Fnan
sg23
S'104 Ave And 168 St'
p1394
sg30
F-122.75647420000001
sbasbag1
(g2
g3
Ntp1395
Rp1396
(dp1397
g7
g1
(g8
g3
Ntp1398
Rp1399
(dp1400
g12
g13
sg14
F49.031125
sg15
Fnan
sg16
g187
sg18
I20140407
sg19
Fnan
sg21
Fnan
sg23
S'16 Avenue and Foster Street'
p1401
sg25
F2013.0
sg26
I2
sg27
Fnan
sg28
g29
sg30
F-122.803932
sbsg31
(lp1402
g1
(g33
g3
Ntp1403
Rp1404
(dp1405
g14
F49.03112541
sg37
S'http://cosmos.surrey.ca/TrafficCameraImages/enc_16_foster_cam1.jpg'
p1406
sg27
Fnan
sg23
S'16 Ave And Foster St'
p1407
sg30
F-122.8039632
sbasbag1
(g2
g3
Ntp1408
Rp1409
(dp1410
g7
g1
(g8
g3
Ntp1411
Rp1412
(dp1413
g12
g13
sg14
F49.190593
sg15
F164.0
sg16
g17
sg18
I20120227
sg19
g20
sg21
g22
sg23
S'103A Avenue and 120 Street'
p1414
sg25
F2009.0
sg26
I4
sg27
Fnan
sg28
g29
sg30
F-122.890275
sbsg31
(lp1415
g1
(g33
g3
Ntp1416
Rp1417
(dp1418
g14
F49.19070451
sg37
S'http://cosmos.surrey.ca/TrafficCameraImages/enc_103a_120_cam1.jpg'
p1419
sg27
Fnan
sg23
S'103A Ave And 120 St'
p1420
sg30
F-122.89051040000001
sbasbag1
(g2
g3
Ntp1421
Rp1422
(dp1423
g7
g1
(g8
g3
Ntp1424
Rp1425
(dp1426
g12
g13
sg14
F49.198824
sg15
Fnan
sg16
g187
sg18
I20130212
sg19
Fnan
sg21
Fnan
sg23
S'108 Avenue and 162 Street'
p1427
sg25
F2012.0
sg26
I2
sg27
Fnan
sg28
g29
sg30
F-122.77308799999999
sbsg31
(lp1428
sbag1
(g2
g3
Ntp1429
Rp1430
(dp1431
g7
g1
(g8
g3
Ntp1432
Rp1433
(dp1434
g12
g13
sg14
F49.190740999999996
sg15
Fnan
sg16
g17
sg18
I20120227
sg19
Fnan
sg21
g22
sg23
S'103A Avenue and Grace Road'
p1435
sg25
F2010.0
sg26
I4
sg27
Fnan
sg28
g29
sg30
F-122.893194
sbsg31
(lp1436
sbag1
(g2
g3
Ntp1437
Rp1438
(dp1439
g7
g1
(g8
g3
Ntp1440
Rp1441
(dp1442
g12
g13
sg14
F49.058806
sg15
F10.0
sg16
g17
sg18
I20140403
sg19
g20
sg21
g22
sg23
S'King George Blvd and 32 Ave Div'
p1443
sg25
Fnan
sg26
I4
sg27
Fnan
sg28
g29
sg30
F-122.80993600000001
sbsg31
(lp1444
g1
(g33
g3
Ntp1445
Rp1446
(dp1447
g14
F49.05862039
sg37
S'http://cosmos.surrey.ca/TrafficCameraImages/enc_32_kgbv_cam1.jpg'
p1448
sg27
Fnan
sg23
S'King George Blvd And 32 Ave Div'
p1449
sg30
F-122.8099657
sbasbag1
(g2
g3
Ntp1450
Rp1451
(dp1452
g7
g1
(g8
g3
Ntp1453
Rp1454
(dp1455
g12
g13
sg14
F49.189694
sg15
Fnan
sg16
g380
sg18
I20130212
sg19
Fnan
sg21
Fnan
sg23
Fnan
sg25
F2010.0
sg26
I3
sg27
Fnan
sg28
g29
sg30
F-122.8419
sbsg31
(lp1456
sbag1
(g2
g3
Ntp1457
Rp1458
(dp1459
g7
g1
(g8
g3
Ntp1460
Rp1461
(dp1462
g12
g13
sg14
F49.042792
sg15
Fnan
sg16
g17
sg18
I20140219
sg19
Fnan
sg21
g22
sg23
S'King George Blvd and 156 Street'
p1463
sg25
F2008.0
sg26
I4
sg27
Fnan
sg28
g29
sg30
F-122.790085
sbsg31
(lp1464
g1
(g33
g3
Ntp1465
Rp1466
(dp1467
g14
F49.04279191
sg37
S'http://cosmos.surrey.ca/TrafficCameraImages/enc_kgbv_156_cam1.jpg'
p1468
sg27
Fnan
sg23
S'King George Blvd And 156 St'
p1469
sg30
F-122.7900851
sbasbag1
(g2
g3
Ntp1470
Rp1471
(dp1472
g7
g1
(g8
g3
Ntp1473
Rp1474
(dp1475
g12
g13
sg14
F49.177025
sg15
F428.0
sg16
g17
sg18
I20141223
sg19
g59
sg21
g913
sg23
S'96 Avenue and 137A Street'
p1476
sg25
F2014.0
sg26
I4
sg27
Fnan
sg28
g29
sg30
F-122.842119
sbsg31
(lp1477
g1
(g33
g3
Ntp1478
Rp1479
(dp1480
g14
F49.17702451
sg37
S'http://cosmos.surrey.ca/TrafficCameraImages/enc_96_137a_cam1.jpg'
p1481
sg27
Fnan
sg23
S'96 Ave And 137A St'
p1482
sg30
F-122.84211859999999
sbasbag1
(g2
g3
Ntp1483
Rp1484
(dp1485
g7
g1
(g8
g3
Ntp1486
Rp1487
(dp1488
g12
g13
sg14
F49.130354
sg15
Fnan
sg16
g17
sg18
I20140625
sg19
Fnan
sg21
g22
sg23
S'70 Avenue and120 Street'
p1489
sg25
F2013.0
sg26
I4
sg27
Fnan
sg28
g29
sg30
F-122.89036000000002
sbsg31
(lp1490
g1
(g33
g3
Ntp1491
Rp1492
(dp1493
g14
F49.13035378
sg37
S'http://cosmos.surrey.ca/TrafficCameraImages/enc_70_120_cam1.jpg'
p1494
sg27
Fnan
sg23
S'70 Ave And 120 St'
p1495
sg30
F-122.8903605
sbasbag1
(g2
g3
Ntp1496
Rp1497
(dp1498
g7
g1
(g8
g3
Ntp1499
Rp1500
(dp1501
g12
g13
sg14
F49.177031
sg15
Fnan
sg16
g17
sg18
I20141223
sg19
Fnan
sg21
g22
sg23
S'96 Avenue and 137 Street'
p1502
sg25
F2014.0
sg26
I4
sg27
Fnan
sg28
g29
sg30
F-122.843396
sbsg31
(lp1503
g1
(g33
g3
Ntp1504
Rp1505
(dp1506
g14
F49.17703076
sg37
S'http://cosmos.surrey.ca/TrafficCameraImages/enc_96_137_cam1.jpg'
p1507
sg27
Fnan
sg23
S'96 Ave And 137 St'
p1508
sg30
F-122.8433963
sbasbag1
(g2
g3
Ntp1509
Rp1510
(dp1511
g7
g1
(g8
g3
Ntp1512
Rp1513
(dp1514
g12
g13
sg14
F49.111845
sg15
Fnan
sg16
g1300
sg18
I20130212
sg19
Fnan
sg21
Fnan
sg23
S'60 Ave & 142 St'
p1515
sg25
F2012.0
sg26
I0
sg27
Fnan
sg28
g29
sg30
F-122.82883500000001
sbsg31
(lp1516
sbag1
(g2
g3
Ntp1517
Rp1518
(dp1519
g7
g1
(g8
g3
Ntp1520
Rp1521
(dp1522
g12
g13
sg14
F49.179061
sg15
Fnan
sg16
g17
sg18
I20120127
sg19
g59
sg21
g913
sg23
S'Golden Ears Way @ 96 Ave Connector'
p1523
sg25
F2009.0
sg26
I4
sg27
Fnan
sg28
g29
sg30
F-122.713325
sbsg31
(lp1524
sbag1
(g2
g3
Ntp1525
Rp1526
(dp1527
g7
g1
(g8
g3
Ntp1528
Rp1529
(dp1530
g12
g13
sg14
F49.181034999999994
sg15
Fnan
sg16
g17
sg18
I20120127
sg19
g59
sg21
g913
sg23
S'192 St @ Golden Ears Way'
p1531
sg25
F2009.0
sg26
I4
sg27
Fnan
sg28
g29
sg30
F-122.690292
sbsg31
(lp1532
sbag1
(g2
g3
Ntp1533
Rp1534
(dp1535
g7
g1
(g8
g3
Ntp1536
Rp1537
(dp1538
g12
g13
sg14
F49.169795
sg15
F388.0
sg16
g17
sg18
I20160112
sg19
g59
sg21
g22
sg23
S'92 Avenue and 128 Street'
p1539
sg25
F2012.0
sg26
I4
sg27
Fnan
sg28
g29
sg30
F-122.86801899999999
sbsg31
(lp1540
g1
(g33
g3
Ntp1541
Rp1542
(dp1543
g14
F49.16979513
sg37
S'http://cosmos.surrey.ca/TrafficCameraImages/enc_92_128_cam1.jpg'
p1544
sg27
Fnan
sg23
S'92 Ave And 128 St'
p1545
sg30
F-122.8680189
sbasbag1
(g2
g3
Ntp1546
Rp1547
(dp1548
g7
g1
(g8
g3
Ntp1549
Rp1550
(dp1551
g12
g13
sg14
F49.176906
sg15
F106.0
sg16
g17
sg18
I20130221
sg19
g20
sg21
g22
sg23
S'96 Avenue and 160 Street'
p1552
sg25
F2012.0
sg26
I4
sg27
Fnan
sg28
g29
sg30
F-122.778846
sbsg31
(lp1553
g1
(g33
g3
Ntp1554
Rp1555
(dp1556
g14
F49.17681568
sg37
S'http://cosmos.surrey.ca/TrafficCameraImages/enc_96_160_cam1.jpg'
p1557
sg27
Fnan
sg23
S'96 Ave And 160 St'
p1558
sg30
F-122.7786838
sbasbag1
(g2
g3
Ntp1559
Rp1560
(dp1561
g7
g1
(g8
g3
Ntp1562
Rp1563
(dp1564
g12
g13
sg14
F49.176939000000004
sg15
Fnan
sg16
g17
sg18
I20130221
sg19
Fnan
sg21
g22
sg23
S'96 Avenue and 162A Street'
p1565
sg25
F2012.0
sg26
I4
sg27
Fnan
sg28
g29
sg30
F-122.771925
sbsg31
(lp1566
sbag1
(g2
g3
Ntp1567
Rp1568
(dp1569
g7
g1
(g8
g3
Ntp1570
Rp1571
(dp1572
g12
g13
sg14
F49.131714
sg15
F376.0
sg16
g187
sg18
I20150618
sg19
g59
sg21
Fnan
sg23
Fnan
sg25
Fnan
sg26
I2
sg27
Fnan
sg28
g29
sg30
F-122.838649
sbsg31
(lp1573
sbag1
(g2
g3
Ntp1574
Rp1575
(dp1576
g7
g1
(g8
g3
Ntp1577
Rp1578
(dp1579
g12
g13
sg14
F49.176996
sg15
F292.0
sg16
g17
sg18
I20150925
sg19
g59
sg21
Fnan
sg23
S'96 Avenue and 168 Street'
p1580
sg25
F2014.0
sg26
I4
sg27
Fnan
sg28
g29
sg30
F-122.75659399999999
sbsg31
(lp1581
g1
(g33
g3
Ntp1582
Rp1583
(dp1584
g14
F49.17699635
sg37
S'http://cosmos.surrey.ca/TrafficCameraImages/enc_96_168_cam1.jpg'
p1585
sg27
Fnan
sg23
S'96 Ave And 168 St'
p1586
sg30
F-122.75659399999999
sbasbag1
(g2
g3
Ntp1587
Rp1588
(dp1589
g7
g1
(g8
g3
Ntp1590
Rp1591
(dp1592
g12
g13
sg14
F49.162856
sg15
F96.0
sg16
g17
sg18
I20150925
sg19
g59
sg21
g22
sg23
S'88 Avenue and 168 Street'
p1593
sg25
Fnan
sg26
I4
sg27
Fnan
sg28
g29
sg30
F-122.75661699999999
sbsg31
(lp1594
g1
(g33
g3
Ntp1595
Rp1596
(dp1597
g14
F49.16285602
sg37
S'http://cosmos.surrey.ca/TrafficCameraImages/enc_88_168_cam1.jpg'
p1598
sg27
Fnan
sg23
S'88 Ave And 168 St'
p1599
sg30
F-122.75661740000001
sbasbag1
(g2
g3
Ntp1600
Rp1601
(dp1602
g7
g1
(g8
g3
Ntp1603
Rp1604
(dp1605
g12
g13
sg14
F49.14803
sg15
F47.0
sg16
g17
sg18
I20150925
sg19
g20
sg21
g22
sg23
S'Fraser Highway and 168 Street'
p1606
sg25
Fnan
sg26
I4
sg27
Fnan
sg28
g29
sg30
F-122.756573
sbsg31
(lp1607
g1
(g33
g3
Ntp1608
Rp1609
(dp1610
g14
F49.14788572
sg37
S'http://cosmos.surrey.ca/TrafficCameraImages/enc_fraser_168_cam1.jpg'
p1611
sg27
Fnan
sg23
S'Fraser Hwy And 168 St'
p1612
sg30
F-122.75667759999999
sbasbag1
(g2
g3
Ntp1613
Rp1614
(dp1615
g7
g1
(g8
g3
Ntp1616
Rp1617
(dp1618
g12
g13
sg14
F49.15549
sg15
Fnan
sg16
g17
sg18
I20150925
sg19
Fnan
sg21
g22
sg23
S'84 Avenue and 168 Street'
p1619
sg25
F2012.0
sg26
I4
sg27
Fnan
sg28
g29
sg30
F-122.756623
sbsg31
(lp1620
g1
(g33
g3
Ntp1621
Rp1622
(dp1623
g14
F49.15549034
sg37
S'http://cosmos.surrey.ca/TrafficCameraImages/enc_84_168_cam1.jpg'
p1624
sg27
Fnan
sg23
S'84 Ave And 168 St'
p1625
sg30
F-122.7566227
sbasbag1
(g2
g3
Ntp1626
Rp1627
(dp1628
g7
g1
(g8
g3
Ntp1629
Rp1630
(dp1631
g12
g13
sg14
F49.101227
sg15
Fnan
sg16
g17
sg18
I20151002
sg19
Fnan
sg21
g22
sg23
S'54 Avenue and 192 Street'
p1632
sg25
F2014.0
sg26
I4
sg27
Fnan
sg28
g29
sg30
F-122.691144
sbsg31
(lp1633
g1
(g33
g3
Ntp1634
Rp1635
(dp1636
g14
F49.10091652
sg37
S'http://cosmos.surrey.ca/TrafficCameraImages/enc_54_192_cam1.jpg'
p1637
sg27
Fnan
sg23
S'54 Ave And 192 St'
p1638
sg30
F-122.69119280000001
sbasbag1
(g2
g3
Ntp1639
Rp1640
(dp1641
g7
g1
(g8
g3
Ntp1642
Rp1643
(dp1644
g12
g13
sg14
F49.137187
sg15
F422.0
sg16
g17
sg18
I20091106
sg19
g20
sg21
g22
sg23
S'King George Blvd and 74 Avenue'
p1645
sg25
F2009.0
sg26
I4
sg27
Fnan
sg28
g29
sg30
F-122.845605
sbsg31
(lp1646
g1
(g33
g3
Ntp1647
Rp1648
(dp1649
g14
F49.13718704
sg37
S'http://cosmos.surrey.ca/TrafficCameraImages/enc_74_kgbv_cam1.jpg'
p1650
sg27
Fnan
sg23
S'74 Ave And King George Blvd'
p1651
sg30
F-122.8456051
sbasbag1
(g2
g3
Ntp1652
Rp1653
(dp1654
g7
g1
(g8
g3
Ntp1655
Rp1656
(dp1657
g12
g13
sg14
F49.045595
sg15
F144.0
sg16
g17
sg18
I20120123
sg19
g20
sg21
g22
sg23
S'King George Blvd and 24 Avenue'
p1658
sg25
F2009.0
sg26
I4
sg27
Fnan
sg28
g29
sg30
F-122.79356000000001
sbsg31
(lp1659
g1
(g33
g3
Ntp1660
Rp1661
(dp1662
g14
F49.04550933
sg37
S'http://cosmos.surrey.ca/TrafficCameraImages/enc_24_kgbv_cam1.jpg'
p1663
sg27
Fnan
sg23
S'24 Ave And King George Blvd'
p1664
sg30
F-122.79322090000001
sbasbag1
(g2
g3
Ntp1665
Rp1666
(dp1667
g7
g1
(g8
g3
Ntp1668
Rp1669
(dp1670
g12
g13
sg14
F49.12571
sg15
Fnan
sg16
g17
sg18
I20120126
sg19
Fnan
sg21
g22
sg23
S'Fraser Highway and 68 Avenue'
p1671
sg25
F2010.0
sg26
I4
sg27
Fnan
sg28
g29
sg30
F-122.70616499999998
sbsg31
(lp1672
sbag1
(g2
g3
Ntp1673
Rp1674
(dp1675
g7
g1
(g8
g3
Ntp1676
Rp1677
(dp1678
g12
g13
sg14
F49.177042
sg15
F317.0
sg16
g17
sg18
I20121221
sg19
g20
sg21
g22
sg23
S'King George Blvd and 96 Avenue'
p1679
sg25
F2012.0
sg26
I4
sg27
Fnan
sg28
g29
sg30
F-122.84571799999999
sbsg31
(lp1680
g1
(g33
g3
Ntp1681
Rp1682
(dp1683
g14
F49.17684976
sg37
S'http://cosmos.surrey.ca/TrafficCameraImages/enc_96_kgbv_cam1.jpg'
p1684
sg27
Fnan
sg23
S'96 Ave And King George Blvd'
p1685
sg30
F-122.8453797
sbasbag1
(g2
g3
Ntp1686
Rp1687
(dp1688
g7
g1
(g8
g3
Ntp1689
Rp1690
(dp1691
g12
g13
sg14
F49.193349
sg15
Fnan
sg16
g187
sg18
I20121221
sg19
Fnan
sg21
Fnan
sg23
S'105 Avenue and 154 Street'
p1692
sg25
F2012.0
sg26
I2
sg27
Fnan
sg28
g29
sg30
F-122.795317
sbsg31
(lp1693
sbag1
(g2
g3
Ntp1694
Rp1695
(dp1696
g7
g1
(g8
g3
Ntp1697
Rp1698
(dp1699
g12
g13
sg14
F49.137084
sg15
F310.0
sg16
g17
sg18
I20140411
sg19
g20
sg21
Fnan
sg23
S'Mall Access and 120 Street'
p1700
sg25
Fnan
sg26
I4
sg27
Fnan
sg28
g29
sg30
F-122.890354
sbsg31
(lp1701
g1
(g33
g3
Ntp1702
Rp1703
(dp1704
g14
F49.13706945
sg37
S'http://cosmos.surrey.ca/TrafficCameraImages/enc_mall_120_cam1.jpg'
p1705
sg27
Fnan
sg23
S'Mall Access And 120 St'
p1706
sg30
F-122.89035559999999
sbasbag1
(g2
g3
Ntp1707
Rp1708
(dp1709
g7
g1
(g8
g3
Ntp1710
Rp1711
(dp1712
g12
g13
sg14
F49.191687
sg15
Fnan
sg16
g17
sg18
I20140407
sg19
Fnan
sg21
g22
sg23
S'104 Avenue and Old Yale Road'
p1713
sg25
F2012.0
sg26
I4
sg27
Fnan
sg28
g29
sg30
F-122.863404
sbsg31
(lp1714
g1
(g33
g3
Ntp1715
Rp1716
(dp1717
g14
F49.191686499999996
sg37
S'http://cosmos.surrey.ca/TrafficCameraImages/enc_104_oldyale_cam1.jpg'
p1718
sg27
Fnan
sg23
S'104 Ave And Old Yale Rd'
p1719
sg30
F-122.8634044
sbasbag1
(g2
g3
Ntp1720
Rp1721
(dp1722
g7
g1
(g8
g3
Ntp1723
Rp1724
(dp1725
g12
g13
sg14
F49.198867
sg15
Fnan
sg16
g1300
sg18
I20140407
sg19
Fnan
sg21
Fnan
sg23
Fnan
sg25
Fnan
sg26
I0
sg27
Fnan
sg28
g29
sg30
F-122.762724
sbsg31
(lp1726
sbag1
(g2
g3
Ntp1727
Rp1728
(dp1729
g7
g1
(g8
g3
Ntp1730
Rp1731
(dp1732
g12
g13
sg14
F49.115462
sg15
Fnan
sg16
g187
sg18
I20121220
sg19
Fnan
sg21
Fnan
sg23
S'62 Avenue and 128 Street'
p1733
sg25
F2012.0
sg26
I2
sg27
Fnan
sg28
g29
sg30
F-122.86784499999999
sbsg31
(lp1734
sbag1
(g2
g3
Ntp1735
Rp1736
(dp1737
g7
g1
(g8
g3
Ntp1738
Rp1739
(dp1740
g12
g13
sg14
F49.131423999999996
sg15
Fnan
sg16
g17
sg18
I20150224
sg19
Fnan
sg21
Fnan
sg23
S'128 St and 70B Ave'
p1741
sg25
F2014.0
sg26
I4
sg27
Fnan
sg28
g29
sg30
F-122.86782099999999
sbsg31
(lp1742
g1
(g33
g3
Ntp1743
Rp1744
(dp1745
g14
F49.13142488
sg37
S'http://cosmos.surrey.ca/TrafficCameraImages/enc_70b_120_cam1.jpg'
p1746
sg27
Fnan
sg23
S'70B Ave And 128 St'
p1747
sg30
F-122.86782590000001
sbasbag1
(g2
g3
Ntp1748
Rp1749
(dp1750
g7
g1
(g8
g3
Ntp1751
Rp1752
(dp1753
g12
g13
sg14
F49.031225
sg15
F445.0
sg16
g17
sg18
I20121220
sg19
g59
sg21
g22
sg23
S'16 Avenue and 136 Street'
p1754
sg25
F2011.0
sg26
I4
sg27
Fnan
sg28
g29
sg30
F-122.84541899999999
sbsg31
(lp1755
g1
(g33
g3
Ntp1756
Rp1757
(dp1758
g14
F49.0312246
sg37
S'http://cosmos.surrey.ca/TrafficCameraImages/enc_16_136_cam1.jpg'
p1759
sg27
Fnan
sg23
S'16 Ave And 136 St'
p1760
sg30
F-122.84541909999999
sbasbag1
(g2
g3
Ntp1761
Rp1762
(dp1763
g7
g1
(g8
g3
Ntp1764
Rp1765
(dp1766
g12
g13
sg14
F49.095085
sg15
Fnan
sg16
g17
sg18
I20150922
sg19
Fnan
sg21
Fnan
sg23
S'152 Street and 152 Street Fg E'
p1767
sg25
F2015.0
sg26
I4
sg27
Fnan
sg28
g29
sg30
F-122.80115500000001
sbsg31
(lp1768
sbag1
(g2
g3
Ntp1769
Rp1770
(dp1771
g7
g1
(g8
g3
Ntp1772
Rp1773
(dp1774
g12
g13
sg14
F49.162778
sg15
Fnan
sg16
g380
sg18
I20140909
sg19
Fnan
sg21
Fnan
sg23
S'88 Ave  158 St'
p1775
sg25
F2014.0
sg26
I3
sg27
Fnan
sg28
g29
sg30
F-122.78518799999999
sbsg31
(lp1776
sbag1
(g2
g3
Ntp1777
Rp1778
(dp1779
g7
g1
(g8
g3
Ntp1780
Rp1781
(dp1782
g12
g13
sg14
F49.177159
sg15
Fnan
sg16
g187
sg18
I20140909
sg19
Fnan
sg21
Fnan
sg23
S'96 Avenue and 122 Street'
p1783
sg25
Fnan
sg26
I2
sg27
Fnan
sg28
g29
sg30
F-122.884623
sbsg31
(lp1784
g1
(g33
g3
Ntp1785
Rp1786
(dp1787
g14
F49.17715921
sg37
S'http://cosmos.surrey.ca/TrafficCameraImages/enc_96_122_cam1.jpg'
p1788
sg27
Fnan
sg23
S'96 Ave And 122 St'
p1789
sg30
F-122.884623
sbasbag1
(g2
g3
Ntp1790
Rp1791
(dp1792
g7
g1
(g8
g3
Ntp1793
Rp1794
(dp1795
g12
g13
sg14
F49.133934
sg15
Fnan
sg16
g380
sg18
I20140909
sg19
Fnan
sg21
Fnan
sg23
Fnan
sg25
Fnan
sg26
I3
sg27
Fnan
sg28
g29
sg30
F-122.87623
sbsg31
(lp1796
sbag1
(g2
g3
Ntp1797
Rp1798
(dp1799
g7
g1
(g8
g3
Ntp1800
Rp1801
(dp1802
g12
g13
sg14
F49.189155
sg15
Fnan
sg16
g380
sg18
I20140909
sg19
Fnan
sg21
Fnan
sg23
Fnan
sg25
Fnan
sg26
I3
sg27
Fnan
sg28
g29
sg30
F-122.84985800000001
sbsg31
(lp1803
sbag1
(g2
g3
Ntp1804
Rp1805
(dp1806
g7
g1
(g8
g3
Ntp1807
Rp1808
(dp1809
g12
g13
sg14
F49.193263
sg15
Fnan
sg16
g187
sg18
I20140909
sg19
Fnan
sg21
Fnan
sg23
S'105 Avenue and 132 Street'
p1810
sg25
Fnan
sg26
I2
sg27
Fnan
sg28
g29
sg30
F-122.85644599999999
sbsg31
(lp1811
g1
(g33
g3
Ntp1812
Rp1813
(dp1814
g14
F49.1932628
sg37
S'http://cosmos.surrey.ca/TrafficCameraImages/enc_105_132_cam1.jpg'
p1815
sg27
Fnan
sg23
S'105 Ave And 132 St'
p1816
sg30
F-122.85644599999999
sbasbag1
(g2
g3
Ntp1817
Rp1818
(dp1819
g7
g1
(g8
g3
Ntp1820
Rp1821
(dp1822
g12
g13
sg14
F49.186115
sg15
Fnan
sg16
g380
sg18
I20140909
sg19
Fnan
sg21
Fnan
sg23
S'101 Ave  Whalley Blvd'
p1823
sg25
Fnan
sg26
I3
sg27
Fnan
sg28
g29
sg30
F-122.84323400000001
sbsg31
(lp1824
sbag1
(g2
g3
Ntp1825
Rp1826
(dp1827
g7
g1
(g8
g3
Ntp1828
Rp1829
(dp1830
g12
g13
sg14
F49.1192
sg15
Fnan
sg16
g380
sg18
I20140909
sg19
Fnan
sg21
Fnan
sg23
S'64 Ave 12500 Blk'
p1831
sg25
F2014.0
sg26
I3
sg27
Fnan
sg28
g29
sg30
F-122.87610600000001
sbsg31
(lp1832
sbag1
(g2
g3
Ntp1833
Rp1834
(dp1835
g7
g1
(g8
g3
Ntp1836
Rp1837
(dp1838
g12
g13
sg14
F49.193059999999996
sg15
F98.0
sg16
g17
sg18
I20150219
sg19
g59
sg21
g22
sg23
S'105 Avenue and 150 Street'
p1839
sg25
F2014.0
sg26
I4
sg27
Fnan
sg28
g29
sg30
F-122.80637800000001
sbsg31
(lp1840
sbag1
(g2
g3
Ntp1841
Rp1842
(dp1843
g7
g1
(g8
g3
Ntp1844
Rp1845
(dp1846
g12
g13
sg14
F49.104521999999996
sg15
F39.0
sg16
g17
sg18
I20130322
sg19
g59
sg21
Fnan
sg23
S'Hwy 10 & KGB'
p1847
sg25
F2007.0
sg26
I4
sg27
Fnan
sg28
g29
sg30
F-122.831301
sbsg31
(lp1848
sbag1
(g2
g3
Ntp1849
Rp1850
(dp1851
g7
g1
(g8
g3
Ntp1852
Rp1853
(dp1854
g12
g13
sg14
F49.118757
sg15
Fnan
sg16
g187
sg18
I20121025
sg19
Fnan
sg21
Fnan
sg23
S'64 Avenue and 180 Street'
p1855
sg25
F2012.0
sg26
I2
sg27
Fnan
sg28
g29
sg30
F-122.723795
sbsg31
(lp1856
sbag1
(g2
g3
Ntp1857
Rp1858
(dp1859
g7
g1
(g8
g3
Ntp1860
Rp1861
(dp1862
g12
g13
sg14
F49.108202
sg15
F301.0
sg16
g17
sg18
I20130322
sg19
g59
sg21
Fnan
sg23
S'Hwy 10 & 132 St'
p1863
sg25
F2007.0
sg26
I4
sg27
Fnan
sg28
g29
sg30
F-122.85671699999999
sbsg31
(lp1864
sbag1
(g2
g3
Ntp1865
Rp1866
(dp1867
g7
g1
(g8
g3
Ntp1868
Rp1869
(dp1870
g12
g13
sg14
F49.181034999999994
sg15
Fnan
sg16
g17
sg18
I20130322
sg19
g59
sg21
Fnan
sg23
S'192 St & Golden Ears Way'
p1871
sg25
Fnan
sg26
I4
sg27
Fnan
sg28
g29
sg30
F-122.690292
sbsg31
(lp1872
sbag1
(g2
g3
Ntp1873
Rp1874
(dp1875
g7
g1
(g8
g3
Ntp1876
Rp1877
(dp1878
g12
g13
sg14
F49.179061
sg15
Fnan
sg16
g17
sg18
I20130322
sg19
g59
sg21
Fnan
sg23
S'96 Ave & Golden Ears Way'
p1879
sg25
Fnan
sg26
I4
sg27
Fnan
sg28
g29
sg30
F-122.713325
sbsg31
(lp1880
sbag1
(g2
g3
Ntp1881
Rp1882
(dp1883
g7
g1
(g8
g3
Ntp1884
Rp1885
(dp1886
g12
g13
sg14
F49.061302000000005
sg15
F14.0
sg16
g17
sg18
I20130322
sg19
g59
sg21
Fnan
sg23
S'32 Ave Diversion & Hwy 99'
p1887
sg25
Fnan
sg26
I4
sg27
Fnan
sg28
g29
sg30
F-122.80508400000001
sbsg31
(lp1888
sbag1
(g2
g3
Ntp1889
Rp1890
(dp1891
g7
g1
(g8
g3
Ntp1892
Rp1893
(dp1894
g12
g13
sg14
F49.045689
sg15
F65.0
sg16
g17
sg18
I20130322
sg19
g59
sg21
Fnan
sg23
S'Hwy 15 & 24 Ave'
p1895
sg25
Fnan
sg26
I4
sg27
Fnan
sg28
g29
sg30
F-122.73528400000001
sbsg31
(lp1896
sbag1
(g2
g3
Ntp1897
Rp1898
(dp1899
g7
g1
(g8
g3
Ntp1900
Rp1901
(dp1902
g12
g13
sg14
F49.104166
sg15
F275.0
sg16
g17
sg18
I20130322
sg19
g59
sg21
Fnan
sg23
S'Hwy 10 & 177B St'
p1903
sg25
Fnan
sg26
I4
sg27
Fnan
sg28
g29
sg30
F-122.730278
sbsg31
(lp1904
sbag1
(g2
g3
Ntp1905
Rp1906
(dp1907
g7
g1
(g8
g3
Ntp1908
Rp1909
(dp1910
g12
g13
sg14
F49.108258
sg15
F300.0
sg16
g17
sg18
I20130322
sg19
g59
sg21
Fnan
sg23
S'Hwy 10 & 120 St'
p1911
sg25
Fnan
sg26
I4
sg27
Fnan
sg28
g29
sg30
F-122.890422
sbsg31
(lp1912
sbag1
(g2
g3
Ntp1913
Rp1914
(dp1915
g7
g1
(g8
g3
Ntp1916
Rp1917
(dp1918
g12
g13
sg14
F49.009406
sg15
F182.0
sg16
g17
sg18
I20130322
sg19
g59
sg21
Fnan
sg23
S'Hwy 15 & 4 Ave'
p1919
sg25
Fnan
sg26
I4
sg27
Fnan
sg28
g29
sg30
F-122.735331
sbsg31
(lp1920
sbag1
(g2
g3
Ntp1921
Rp1922
(dp1923
g7
g1
(g8
g3
Ntp1924
Rp1925
(dp1926
g12
g13
sg14
F49.005547
sg15
F185.0
sg16
g17
sg18
I20130322
sg19
g59
sg21
Fnan
sg23
S'Hwy 15 & 2 Ave'
p1927
sg25
Fnan
sg26
I4
sg27
Fnan
sg28
g29
sg30
F-122.735372
sbsg31
(lp1928
sbag1
(g2
g3
Ntp1929
Rp1930
(dp1931
g7
g1
(g8
g3
Ntp1932
Rp1933
(dp1934
g12
g13
sg14
F49.104162
sg15
F67.0
sg16
g17
sg18
I20130322
sg19
g59
sg21
Fnan
sg23
S'Hwy 10 & 180 St'
p1935
sg25
Fnan
sg26
I4
sg27
Fnan
sg28
g29
sg30
F-122.723828
sbsg31
(lp1936
sbag1
(g2
g3
Ntp1937
Rp1938
(dp1939
g7
g1
(g8
g3
Ntp1940
Rp1941
(dp1942
g12
g13
sg14
F49.104106
sg15
F45.0
sg16
g17
sg18
I20130322
sg19
g59
sg21
Fnan
sg23
S'Hwy 10 & 184 St'
p1943
sg25
Fnan
sg26
I4
sg27
Fnan
sg28
g29
sg30
F-122.71268500000001
sbsg31
(lp1944
sbag1
(g2
g3
Ntp1945
Rp1946
(dp1947
g7
g1
(g8
g3
Ntp1948
Rp1949
(dp1950
g12
g13
sg14
F49.104285
sg15
F34.0
sg16
g17
sg18
I20130322
sg19
g59
sg21
Fnan
sg23
S'Hwy 10 & 168 St'
p1951
sg25
F2007.0
sg26
I4
sg27
Fnan
sg28
g29
sg30
F-122.756653
sbsg31
(lp1952
sbag1
(g2
g3
Ntp1953
Rp1954
(dp1955
g7
g1
(g8
g3
Ntp1956
Rp1957
(dp1958
g12
g13
sg14
F49.104428999999996
sg15
F140.0
sg16
g17
sg18
I20130322
sg19
g59
sg21
Fnan
sg23
S'Hwy 10 & 152 St'
p1959
sg25
F2007.0
sg26
I4
sg27
Fnan
sg28
g29
sg30
F-122.801041
sbsg31
(lp1960
g1
(g33
g3
Ntp1961
Rp1962
(dp1963
g14
F49.10414956
sg37
S'http://images.drivebc.ca/bchighwaycam/pub/cameras/81.jpg'
p1964
sg27
F180.0
sg23
S'56 Ave And 152 St'
p1965
sg30
F-122.80102450000001
sbag1
(g33
g3
Ntp1966
Rp1967
(dp1968
g14
F49.10477499
sg37
S'http://images.drivebc.ca/bchighwaycam/pub/cameras/79.jpg'
p1969
sg27
Fnan
sg23
g1965
sg30
F-122.80103559999999
sbasbag1
(g2
g3
Ntp1970
Rp1971
(dp1972
g7
g1
(g8
g3
Ntp1973
Rp1974
(dp1975
g12
g13
sg14
F49.104541999999995
sg15
F222.0
sg16
g17
sg18
I20130322
sg19
g59
sg21
Fnan
sg23
S'Hwy 10 & 144 St'
p1976
sg25
F2007.0
sg26
I4
sg27
Fnan
sg28
g29
sg30
F-122.82342299999999
sbsg31
(lp1977
sbag1
(g2
g3
Ntp1978
Rp1979
(dp1980
g7
g1
(g8
g3
Ntp1981
Rp1982
(dp1983
g12
g13
sg14
F49.104501
sg15
F1.0
sg16
g17
sg18
I20130322
sg19
g59
sg21
Fnan
sg23
S'Hwy 10 & 148 St'
p1984
sg25
F2007.0
sg26
I4
sg27
Fnan
sg28
g29
sg30
F-122.812306
sbsg31
(lp1985
sbag1
(g2
g3
Ntp1986
Rp1987
(dp1988
g7
g1
(g8
g3
Ntp1989
Rp1990
(dp1991
g12
g13
sg14
F49.113887
sg15
Fnan
sg16
g17
sg18
I20150422
sg19
Fnan
sg21
Fnan
sg23
S'Fraser Highway and 196 Street'
p1992
sg25
F2014.0
sg26
I4
sg27
Fnan
sg28
g29
sg30
F-122.67979199999999
sbsg31
(lp1993
sbag1
(g2
g3
Ntp1994
Rp1995
(dp1996
g7
g1
(g8
g3
Ntp1997
Rp1998
(dp1999
g12
g13
sg14
F49.158946
sg15
Fnan
sg16
g17
sg18
I20140527
sg19
Fnan
sg21
g22
sg23
S'86 Avenue and 128 Street'
p2000
sg25
Fnan
sg26
I4
sg27
Fnan
sg28
g29
sg30
F-122.86801299999999
sbsg31
(lp2001
g1
(g33
g3
Ntp2002
Rp2003
(dp2004
g14
F49.15894616
sg37
S'http://cosmos.surrey.ca/TrafficCameraImages/enc_86_128_cam1.jpg'
p2005
sg27
Fnan
sg23
S'86 Ave And 128 St'
p2006
sg30
F-122.8680126
sbasbag1
(g2
g3
Ntp2007
Rp2008
(dp2009
g7
g1
(g8
g3
Ntp2010
Rp2011
(dp2012
g12
g13
sg14
F49.148165000000006
sg15
F15.0
sg16
g1300
sg18
I20140527
sg19
g59
sg21
Fnan
sg23
Fnan
sg25
Fnan
sg26
I0
sg27
Fnan
sg28
g29
sg30
F-122.86226599999999
sbsg31
(lp2013
sbag1
(g2
g3
Ntp2014
Rp2015
(dp2016
g7
g1
(g8
g3
Ntp2017
Rp2018
(dp2019
g12
g13
sg14
F49.104401
sg15
Fnan
sg16
g17
sg18
I20150422
sg19
Fnan
sg21
g22
sg23
S'56 Avenue and 196 Street'
p2020
sg25
F2014.0
sg26
I4
sg27
Fnan
sg28
g29
sg30
F-122.67995800000001
sbsg31
(lp2021
g1
(g33
g3
Ntp2022
Rp2023
(dp2024
g14
F49.1044008
sg37
S'http://cosmos.surrey.ca/TrafficCameraImages/enc_56_196_cam1.jpg'
p2025
sg27
Fnan
sg23
S'56 Ave And 196 St'
p2026
sg30
F-122.67995819999999
sbasbag1
(g2
g3
Ntp2027
Rp2028
(dp2029
g7
g1
(g8
g3
Ntp2030
Rp2031
(dp2032
g12
g13
sg14
F49.140913
sg15
Fnan
sg16
g1300
sg18
I20140527
sg19
Fnan
sg21
Fnan
sg23
Fnan
sg25
Fnan
sg26
I0
sg27
Fnan
sg28
g29
sg30
F-122.83450800000001
sbsg31
(lp2033
sbag1
(g2
g3
Ntp2034
Rp2035
(dp2036
g7
g1
(g8
g3
Ntp2037
Rp2038
(dp2039
g12
g13
sg14
F49.108244
sg15
Fnan
sg16
g1300
sg18
I20140527
sg19
Fnan
sg21
Fnan
sg23
Fnan
sg25
Fnan
sg26
I0
sg27
Fnan
sg28
g29
sg30
F-122.81226699999999
sbsg31
(lp2040
sbag1
(g2
g3
Ntp2041
Rp2042
(dp2043
g7
g1
(g8
g3
Ntp2044
Rp2045
(dp2046
g12
g13
sg14
F49.120765999999996
sg15
Fnan
sg16
g1300
sg18
I20140527
sg19
Fnan
sg21
Fnan
sg23
Fnan
sg25
Fnan
sg26
I0
sg27
Fnan
sg28
g29
sg30
F-122.70171699999999
sbsg31
(lp2047
sbag1
(g2
g3
Ntp2048
Rp2049
(dp2050
g7
g1
(g8
g3
Ntp2051
Rp2052
(dp2053
g12
g13
sg14
F49.123519
sg15
Fnan
sg16
g17
sg18
I20140527
sg19
Fnan
sg21
g22
sg23
S'66A Avenue and 152 Street'
p2054
sg25
F2012.0
sg26
I4
sg27
Fnan
sg28
g29
sg30
F-122.80102099999999
sbsg31
(lp2055
g1
(g33
g3
Ntp2056
Rp2057
(dp2058
g14
F49.12351944
sg37
S'http://cosmos.surrey.ca/TrafficCameraImages/enc_66a_152_cam1.jpg'
p2059
sg27
Fnan
sg23
S'66A Ave And 152 St'
p2060
sg30
F-122.8010206
sbasbag1
(g2
g3
Ntp2061
Rp2062
(dp2063
g7
g1
(g8
g3
Ntp2064
Rp2065
(dp2066
g12
g13
sg14
F49.104495
sg15
F124.0
sg16
g17
sg18
I20140527
sg19
g59
sg21
Fnan
sg23
S'Hwy 10 & 192 St'
p2067
sg25
Fnan
sg26
I4
sg27
Fnan
sg28
g29
sg30
F-122.691126
sbsg31
(lp2068
sbag1
(g2
g3
Ntp2069
Rp2070
(dp2071
g7
g1
(g8
g3
Ntp2072
Rp2073
(dp2074
g12
g13
sg14
F49.104147
sg15
F337.0
sg16
g17
sg18
I20140527
sg19
g59
sg21
Fnan
sg23
Fnan
sg25
F2013.0
sg26
I4
sg27
Fnan
sg28
g29
sg30
F-122.70163400000001
sbsg31
(lp2075
sbag1
(g2
g3
Ntp2076
Rp2077
(dp2078
g7
g1
(g8
g3
Ntp2079
Rp2080
(dp2081
g12
g13
sg14
F49.193371
sg15
F7.0
sg16
g17
sg18
I20160408
sg19
g59
sg21
Fnan
sg23
g1053
sg25
Fnan
sg26
I4
sg27
Fnan
sg28
g29
sg30
F-122.77727
sbsg31
(lp2082
sbag1
(g2
g3
Ntp2083
Rp2084
(dp2085
g7
g1
(g8
g3
Ntp2086
Rp2087
(dp2088
g12
g13
sg14
F49.130036
sg15
Fnan
sg16
g17
sg18
I20140527
sg19
Fnan
sg21
g22
sg23
S'70 Avenue and 192 Street'
p2089
sg25
Fnan
sg26
I4
sg27
Fnan
sg28
g29
sg30
F-122.690828
sbsg31
(lp2090
sbag1
(g2
g3
Ntp2091
Rp2092
(dp2093
g7
g1
(g8
g3
Ntp2094
Rp2095
(dp2096
g12
g13
sg14
F49.126391999999996
sg15
Fnan
sg16
g17
sg18
I20140527
sg19
Fnan
sg21
g22
sg23
S'68 Avenue and 192 Street'
p2097
sg25
Fnan
sg26
I4
sg27
Fnan
sg28
g29
sg30
F-122.69086999999999
sbsg31
(lp2098
g1
(g33
g3
Ntp2099
Rp2100
(dp2101
g14
F49.12639291
sg37
S'http://cosmos.surrey.ca/TrafficCameraImages/enc_68_192_cam1.jpg'
p2102
sg27
Fnan
sg23
S'68 Ave And 192 St'
p2103
sg30
F-122.6908696
sbasbag1
(g2
g3
Ntp2104
Rp2105
(dp2106
g7
g1
(g8
g3
Ntp2107
Rp2108
(dp2109
g12
g13
sg14
F49.133682
sg15
Fnan
sg16
g17
sg18
I20140527
sg19
Fnan
sg21
g22
sg23
S'72 Avenue and 192 Street'
p2110
sg25
Fnan
sg26
I4
sg27
Fnan
sg28
g29
sg30
F-122.690789
sbsg31
(lp2111
g1
(g33
g3
Ntp2112
Rp2113
(dp2114
g14
F49.13368223
sg37
S'http://cosmos.surrey.ca/TrafficCameraImages/enc_72_192_cam1.jpg'
p2115
sg27
Fnan
sg23
S'72 Ave And 192 St'
p2116
sg30
F-122.6907882
sbasbag1
(g2
g3
Ntp2117
Rp2118
(dp2119
g7
g1
(g8
g3
Ntp2120
Rp2121
(dp2122
g12
g13
sg14
F49.111236
sg15
Fnan
sg16
g17
sg18
I20150422
sg19
Fnan
sg21
g22
sg23
S'60 Avenue and 196 Street'
p2123
sg25
F2014.0
sg26
I4
sg27
Fnan
sg28
g29
sg30
F-122.679911
sbsg31
(lp2124
g1
(g33
g3
Ntp2125
Rp2126
(dp2127
g14
F49.11123641
sg37
S'http://cosmos.surrey.ca/TrafficCameraImages/enc_60_196_cam1.jpg'
p2128
sg27
Fnan
sg23
S'60 Ave And 196 St'
p2129
sg30
F-122.6799108
sbasbag1
(g2
g3
Ntp2130
Rp2131
(dp2132
g7
g1
(g8
g3
Ntp2133
Rp2134
(dp2135
g12
g13
sg14
F49.052809
sg15
Fnan
sg16
g17
sg18
I20150721
sg19
Fnan
sg21
g22
sg23
S'28 Avenue and 160 Street'
p2136
sg25
F2014.0
sg26
I4
sg27
Fnan
sg28
g29
sg30
F-122.77918899999999
sbsg31
(lp2137
g1
(g33
g3
Ntp2138
Rp2139
(dp2140
g14
F49.05280927
sg37
S'http://cosmos.surrey.ca/TrafficCameraImages/enc_28_160_cam1.jpg'
p2141
sg27
Fnan
sg23
S'28 Ave And 160 St'
p2142
sg30
F-122.7791892
sbasbag1
(g2
g3
Ntp2143
Rp2144
(dp2145
g7
g1
(g8
g3
Ntp2146
Rp2147
(dp2148
g12
g13
sg14
F49.153642
sg15
Fnan
sg16
g1300
sg18
I20140527
sg19
Fnan
sg21
Fnan
sg23
Fnan
sg25
Fnan
sg26
I0
sg27
Fnan
sg28
g29
sg30
F-122.77883700000001
sbsg31
(lp2149
sbag1
(g2
g3
Ntp2150
Rp2151
(dp2152
g7
g1
(g8
g3
Ntp2153
Rp2154
(dp2155
g12
g13
sg14
F49.119039
sg15
F86.0
sg16
g17
sg18
I20120920
sg19
g20
sg21
g22
sg23
S'King George Blvd and 64 Avenue'
p2156
sg25
Fnan
sg26
I4
sg27
Fnan
sg28
g29
sg30
F-122.84548600000001
sbsg31
(lp2157
g1
(g33
g3
Ntp2158
Rp2159
(dp2160
g14
F49.1187561
sg37
S'http://cosmos.surrey.ca/TrafficCameraImages/enc_64_kgbv_cam1.jpg'
p2161
sg27
Fnan
sg23
S'64 Ave And King George Blvd'
p2162
sg30
F-122.8452867
sbasbag1
(g2
g3
Ntp2163
Rp2164
(dp2165
g7
g1
(g8
g3
Ntp2166
Rp2167
(dp2168
g12
g13
sg14
F49.162746999999996
sg15
F302.0
sg16
g17
sg18
I20120920
sg19
g20
sg21
g22
sg23
S'88 Avenue and 160 Street'
p2169
sg25
Fnan
sg26
I4
sg27
Fnan
sg28
g29
sg30
F-122.77886299999999
sbsg31
(lp2170
g1
(g33
g3
Ntp2171
Rp2172
(dp2173
g14
F49.16265007
sg37
S'http://cosmos.surrey.ca/TrafficCameraImages/enc_88_160_cam1.jpg'
p2174
sg27
Fnan
sg23
S'88 Ave And 160 St'
p2175
sg30
F-122.7786703
sbasbag1
(g2
g3
Ntp2176
Rp2177
(dp2178
g7
g1
(g8
g3
Ntp2179
Rp2180
(dp2181
g12
g13
sg14
F49.15546
sg15
F329.0
sg16
g17
sg18
I20120920
sg19
g20
sg21
Fnan
sg23
S'84 Avenue and 160 Street'
p2182
sg25
Fnan
sg26
I4
sg27
Fnan
sg28
g29
sg30
F-122.77883999999999
sbsg31
(lp2183
g1
(g33
g3
Ntp2184
Rp2185
(dp2186
g14
F49.15546009
sg37
S'http://cosmos.surrey.ca/TrafficCameraImages/enc_84_160_cam1.jpg'
p2187
sg27
Fnan
sg23
S'84 Ave And 160 St'
p2188
sg30
F-122.77883999999999
sbasbag1
(g2
g3
Ntp2189
Rp2190
(dp2191
g7
g1
(g8
g3
Ntp2192
Rp2193
(dp2194
g12
g13
sg14
F49.111425
sg15
F95.0
sg16
g17
sg18
I20120920
sg19
g59
sg21
g22
sg23
S'60 Avenue and 184 Street'
p2195
sg25
Fnan
sg26
I4
sg27
Fnan
sg28
g29
sg30
F-122.71263300000001
sbsg31
(lp2196
g1
(g33
g3
Ntp2197
Rp2198
(dp2199
g14
F49.11142451
sg37
S'http://cosmos.surrey.ca/TrafficCameraImages/enc_60_184_cam1.jpg'
p2200
sg27
Fnan
sg23
S'60 Ave And 184 St'
p2201
sg30
F-122.7126334
sbasbag1
(g2
g3
Ntp2202
Rp2203
(dp2204
g7
g1
(g8
g3
Ntp2205
Rp2206
(dp2207
g12
g13
sg14
F49.129961
sg15
F210.0
sg16
g17
sg18
I20120920
sg19
g59
sg21
g22
sg23
S'70 Avenue and 138 Street'
p2208
sg25
Fnan
sg26
I4
sg27
Fnan
sg28
g29
sg30
F-122.838646
sbsg31
(lp2209
g1
(g33
g3
Ntp2210
Rp2211
(dp2212
g14
F49.12996112
sg37
S'http://cosmos.surrey.ca/TrafficCameraImages/enc_70_138_cam1.jpg'
p2213
sg27
Fnan
sg23
S'70 Ave And 138 St'
p2214
sg30
F-122.8386459
sbasbag1
(g2
g3
Ntp2215
Rp2216
(dp2217
g7
g1
(g8
g3
Ntp2218
Rp2219
(dp2220
g12
g13
sg14
F49.194447
sg15
F51.0
sg16
g17
sg18
I20120920
sg19
g20
sg21
g22
sg23
S'King George Blvd and 105A Avenue'
p2221
sg25
Fnan
sg26
I4
sg27
Fnan
sg28
g29
sg30
F-122.84531899999999
sbsg31
(lp2222
g1
(g33
g3
Ntp2223
Rp2224
(dp2225
g14
F49.19422826
sg37
S'http://cosmos.surrey.ca/TrafficCameraImages/enc_105a_kgbv_cam1.jpg'
p2226
sg27
Fnan
sg23
S'105A Ave And King George Blvd'
p2227
sg30
F-122.84511950000001
sbasbag1
(g2
g3
Ntp2228
Rp2229
(dp2230
g7
g1
(g8
g3
Ntp2231
Rp2232
(dp2233
g12
g13
sg14
F49.148259
sg15
F363.0
sg16
g187
sg18
I20120920
sg19
g59
sg21
Fnan
sg23
S'80 Avenue and Serpentine Greenway'
p2234
sg25
Fnan
sg26
I2
sg27
Fnan
sg28
g29
sg30
F-122.873145
sbsg31
(lp2235
sbag1
(g2
g3
Ntp2236
Rp2237
(dp2238
g7
g1
(g8
g3
Ntp2239
Rp2240
(dp2241
g12
g13
sg14
F49.162759
sg15
F319.0
sg16
g17
sg18
I20120920
sg19
g20
sg21
Fnan
sg23
S'King George Blvd and 88 Avenue'
p2242
sg25
Fnan
sg26
I4
sg27
Fnan
sg28
g29
sg30
F-122.84578799999998
sbsg31
(lp2243
g1
(g33
g3
Ntp2244
Rp2245
(dp2246
g14
F49.16252167
sg37
S'http://cosmos.surrey.ca/TrafficCameraImages/enc_88_kgbv_cam1.jpg'
p2247
sg27
Fnan
sg23
S'88 Ave And King George Blvd'
p2248
sg30
F-122.84554479999998
sbasbag1
(g2
g3
Ntp2249
Rp2250
(dp2251
g7
g1
(g8
g3
Ntp2252
Rp2253
(dp2254
g12
g13
sg14
F49.032725
sg15
F261.0
sg16
g17
sg18
I20120920
sg19
g20
sg21
g22
sg23
S'Southmere Crescent and Martin Dr'
p2255
sg25
Fnan
sg26
I4
sg27
Fnan
sg28
g29
sg30
F-122.805066
sbsg31
(lp2256
sbag1
(g2
g3
Ntp2257
Rp2258
(dp2259
g7
g1
(g8
g3
Ntp2260
Rp2261
(dp2262
g12
g13
sg14
F49.198961
sg15
F5.0
sg16
g17
sg18
I20120920
sg19
g20
sg21
g22
sg23
S'108 Avenue and 132 Street'
p2263
sg25
Fnan
sg26
I4
sg27
Fnan
sg28
g29
sg30
F-122.856477
sbsg31
(lp2264
sbag1
(g2
g3
Ntp2265
Rp2266
(dp2267
g7
g1
(g8
g3
Ntp2268
Rp2269
(dp2270
g12
g13
sg14
F49.184807
sg15
F417.0
sg16
g402
sg18
I20120920
sg19
g59
sg21
Fnan
sg23
Fnan
sg25
Fnan
sg26
I1
sg27
Fnan
sg28
g29
sg30
F-122.73443400000001
sbsg31
(lp2271
sbag1
(g2
g3
Ntp2272
Rp2273
(dp2274
g7
g1
(g8
g3
Ntp2275
Rp2276
(dp2277
g12
g13
sg14
F49.11545
sg15
F436.0
sg16
g17
sg18
I20120920
sg19
g59
sg21
g22
sg23
S'King George Blvd and 62 Avenue'
p2278
sg25
F2008.0
sg26
I4
sg27
Fnan
sg28
g29
sg30
F-122.844449
sbsg31
(lp2279
g1
(g33
g3
Ntp2280
Rp2281
(dp2282
g14
F49.11563315
sg37
S'http://cosmos.surrey.ca/TrafficCameraImages/enc_62_kgbv_cam1.jpg'
p2283
sg27
Fnan
sg23
S'62 Ave And King George Blvd'
p2284
sg30
F-122.84474490000001
sbasbag1
(g2
g3
Ntp2285
Rp2286
(dp2287
g7
g1
(g8
g3
Ntp2288
Rp2289
(dp2290
g12
g13
sg14
F49.119127
sg15
F100.0
sg16
g17
sg18
I20120920
sg19
g20
sg21
g22
sg23
S'64 Avenue and 148 Street'
p2291
sg25
Fnan
sg26
I4
sg27
Fnan
sg28
g29
sg30
F-122.812178
sbsg31
(lp2292
g1
(g33
g3
Ntp2293
Rp2294
(dp2295
g14
F49.11899806
sg37
S'http://cosmos.surrey.ca/TrafficCameraImages/enc_64_148_cam1.jpg'
p2296
sg27
Fnan
sg23
S'64 Ave And 148 St'
p2297
sg30
F-122.8123193
sbasbag1
(g2
g3
Ntp2298
Rp2299
(dp2300
g7
g1
(g8
g3
Ntp2301
Rp2302
(dp2303
g12
g13
sg14
F49.140189
sg15
F49.0
sg16
g17
sg18
I20120920
sg19
g20
sg21
Fnan
sg23
S'75A Avenueand 120 Street'
p2304
sg25
Fnan
sg26
I4
sg27
Fnan
sg28
g29
sg30
F-122.890353
sbsg31
(lp2305
g1
(g33
g3
Ntp2306
Rp2307
(dp2308
g14
F49.14018891
sg37
S'http://cosmos.surrey.ca/TrafficCameraImages/enc_75a_120_cam1.jpg'
p2309
sg27
Fnan
sg23
S'75A Ave And 120 St'
p2310
sg30
F-122.8903532
sbasbag1
(g2
g3
Ntp2311
Rp2312
(dp2313
g7
g1
(g8
g3
Ntp2314
Rp2315
(dp2316
g12
g13
sg14
F49.198786
sg15
F200.0
sg16
g17
sg18
I20120920
sg19
g20
sg21
g22
sg23
S'108 Avenue and 144 Street'
p2317
sg25
Fnan
sg26
I4
sg27
Fnan
sg28
g29
sg30
F-122.823024
sbsg31
(lp2318
g1
(g33
g3
Ntp2319
Rp2320
(dp2321
g14
F49.19878566
sg37
S'http://cosmos.surrey.ca/TrafficCameraImages/enc_108_144_cam1.jpg'
p2322
sg27
Fnan
sg23
S'108 Ave And 144 St'
p2323
sg30
F-122.8230237
sbasbag1
(g2
g3
Ntp2324
Rp2325
(dp2326
g7
g1
(g8
g3
Ntp2327
Rp2328
(dp2329
g12
g13
sg14
F49.155462
sg15
F290.0
sg16
g17
sg18
I20120920
sg19
g20
sg21
Fnan
sg23
S'King George Blvd and 84 Avenue'
p2330
sg25
Fnan
sg26
I4
sg27
Fnan
sg28
g29
sg30
F-122.84579599999999
sbsg31
(lp2331
g1
(g33
g3
Ntp2332
Rp2333
(dp2334
g14
F49.15546216
sg37
S'http://cosmos.surrey.ca/TrafficCameraImages/enc_84_kgbv_cam1.jpg'
p2335
sg27
Fnan
sg23
S'84 Ave And King George Blvd'
p2336
sg30
F-122.8457959
sbasbag1
(g2
g3
Ntp2337
Rp2338
(dp2339
g7
g1
(g8
g3
Ntp2340
Rp2341
(dp2342
g12
g13
sg14
F49.177146
sg15
F69.0
sg16
g17
sg18
I20120920
sg19
g20
sg21
g22
sg23
S'96 Avenue and120 Street'
p2343
sg25
Fnan
sg26
I4
sg27
Fnan
sg28
g29
sg30
F-122.89015400000001
sbsg31
(lp2344
g1
(g33
g3
Ntp2345
Rp2346
(dp2347
g14
F49.17677783
sg37
S'http://cosmos.surrey.ca/TrafficCameraImages/enc_96_120_cam1.jpg'
p2348
sg27
Fnan
sg23
S'96 Ave And 120 St'
p2349
sg30
F-122.8899595
sbag1
(g33
g3
Ntp2350
Rp2351
(dp2352
g14
F49.17724671
sg37
g2348
sg27
Fnan
sg23
g2349
sg30
F-122.89062759999999
sbasbag1
(g2
g3
Ntp2353
Rp2354
(dp2355
g7
g1
(g8
g3
Ntp2356
Rp2357
(dp2358
g12
g13
sg14
F49.168268
sg15
F377.0
sg16
g187
sg18
I20120920
sg19
g59
sg21
Fnan
sg23
S'91 Avenue and 160 Street'
p2359
sg25
Fnan
sg26
I2
sg27
Fnan
sg28
g29
sg30
F-122.778865
sbsg31
(lp2360
sbag1
(g2
g3
Ntp2361
Rp2362
(dp2363
g7
g1
(g8
g3
Ntp2364
Rp2365
(dp2366
g12
g13
sg14
F49.056336
sg15
F59.0
sg16
g17
sg18
I20120920
sg19
g20
sg21
g22
sg23
S'Mall Access and 152 Street'
p2367
sg25
Fnan
sg26
I4
sg27
Fnan
sg28
g29
sg30
F-122.80120600000001
sbsg31
(lp2368
g1
(g33
g3
Ntp2369
Rp2370
(dp2371
g14
F49.05634403
sg37
S'http://cosmos.surrey.ca/TrafficCameraImages/enc_mall_152_cam1.jpg'
p2372
sg27
Fnan
sg23
S'Mall Access And 152 St'
p2373
sg30
F-122.80116909999998
sbasbag1
(g2
g3
Ntp2374
Rp2375
(dp2376
g7
g1
(g8
g3
Ntp2377
Rp2378
(dp2379
g12
g13
sg14
F49.198729
sg15
F136.0
sg16
g17
sg18
I20120920
sg19
g20
sg21
g22
sg23
S'108 Avenue and 148 Street'
p2380
sg25
Fnan
sg26
I4
sg27
Fnan
sg28
g29
sg30
F-122.81248000000001
sbsg31
(lp2381
g1
(g33
g3
Ntp2382
Rp2383
(dp2384
g14
F49.19864093
sg37
S'http://cosmos.surrey.ca/TrafficCameraImages/enc_108_148_cam1.jpg'
p2385
sg27
Fnan
sg23
S'108 Ave And 148 St'
p2386
sg30
F-122.8122902
sbasbag1
(g2
g3
Ntp2387
Rp2388
(dp2389
g7
g1
(g8
g3
Ntp2390
Rp2391
(dp2392
g12
g13
sg14
F49.139266
sg15
F255.0
sg16
g17
sg18
I20120920
sg19
g20
sg21
g22
sg23
S'75 Avenue and 124 Street'
p2393
sg25
Fnan
sg26
I4
sg27
Fnan
sg28
g29
sg30
F-122.879058
sbsg31
(lp2394
g1
(g33
g3
Ntp2395
Rp2396
(dp2397
g14
F49.13926638
sg37
S'http://cosmos.surrey.ca/TrafficCameraImages/enc_75_124_cam1.jpg'
p2398
sg27
Fnan
sg23
S'75 Ave And 124 St'
p2399
sg30
F-122.8790584
sbasbag1
(g2
g3
Ntp2400
Rp2401
(dp2402
g7
g1
(g8
g3
Ntp2403
Rp2404
(dp2405
g12
g13
sg14
F49.133559000000005
sg15
F43.0
sg16
g17
sg18
I20120920
sg19
g20
sg21
g22
sg23
S'72 Avenue and 137 Street'
p2406
sg25
Fnan
sg26
I4
sg27
Fnan
sg28
g29
sg30
F-122.84279699999999
sbsg31
(lp2407
g1
(g33
g3
Ntp2408
Rp2409
(dp2410
g14
F49.1335589
sg37
S'http://cosmos.surrey.ca/TrafficCameraImages/enc_72_137_cam2.jpg'
p2411
sg27
Fnan
sg23
S'72 Ave And 137 St'
p2412
sg30
F-122.8427967
sbag1
(g33
g3
Ntp2413
Rp2414
(dp2415
g14
F49.13347045
sg37
S'http://cosmos.surrey.ca/TrafficCameraImages/enc_72_137_cam1.jpg'
p2416
sg27
Fnan
sg23
g2412
sg30
F-122.84260630000001
sbasbag1
(g2
g3
Ntp2417
Rp2418
(dp2419
g7
g1
(g8
g3
Ntp2420
Rp2421
(dp2422
g12
g13
sg14
F49.046863
sg15
Fnan
sg16
g17
sg18
I20120920
sg19
g59
sg21
g22
sg23
S'Mall Access and 160 Street'
p2423
sg25
Fnan
sg26
I4
sg27
Fnan
sg28
g29
sg30
F-122.779207
sbsg31
(lp2424
sbag1
(g2
g3
Ntp2425
Rp2426
(dp2427
g7
g1
(g8
g3
Ntp2428
Rp2429
(dp2430
g12
g13
sg14
F49.19151
sg15
F194.0
sg16
g17
sg18
I20120920
sg19
g20
sg21
g22
sg23
S'104 Avenue and 146 Street'
p2431
sg25
Fnan
sg26
I4
sg27
Fnan
sg28
g29
sg30
F-122.81750500000001
sbsg31
(lp2432
g1
(g33
g3
Ntp2433
Rp2434
(dp2435
g14
F49.19150988
sg37
S'http://cosmos.surrey.ca/TrafficCameraImages/enc_104_146_cam1.jpg'
p2436
sg27
Fnan
sg23
S'104 Ave And 146 St'
p2437
sg30
F-122.81750509999999
sbasbag1
(g2
g3
Ntp2438
Rp2439
(dp2440
g7
g1
(g8
g3
Ntp2441
Rp2442
(dp2443
g12
g13
sg14
F49.186129
sg15
F149.0
sg16
g17
sg18
I20120920
sg19
g20
sg21
Fnan
sg23
S'King George Blvd and Mall Access'
p2444
sg25
Fnan
sg26
I4
sg27
Fnan
sg28
g29
sg30
F-122.845418
sbsg31
(lp2445
g1
(g33
g3
Ntp2446
Rp2447
(dp2448
g14
F49.18621625
sg37
S'http://cosmos.surrey.ca/TrafficCameraImages/enc_kgbv_mall_cam1.jpg'
p2449
sg27
Fnan
sg23
S'King George Blvd And Mall Access'
p2450
sg30
F-122.84542340000002
sbasbag1
(g2
g3
Ntp2451
Rp2452
(dp2453
g7
g1
(g8
g3
Ntp2454
Rp2455
(dp2456
g12
g13
sg14
F49.145441
sg15
F389.0
sg16
g187
sg18
I20120920
sg19
g59
sg21
Fnan
sg23
S'78A Avenue and 140 Street'
p2457
sg25
Fnan
sg26
I2
sg27
Fnan
sg28
g29
sg30
F-122.834542
sbsg31
(lp2458
sbag1
(g2
g3
Ntp2459
Rp2460
(dp2461
g7
g1
(g8
g3
Ntp2462
Rp2463
(dp2464
g12
g13
sg14
F49.153017
sg15
F78.0
sg16
g402
sg18
I20120920
sg19
g59
sg21
Fnan
sg23
Fnan
sg25
Fnan
sg26
I1
sg27
Fnan
sg28
g29
sg30
F-122.767747
sbsg31
(lp2465
g1
(g33
g3
Ntp2466
Rp2467
(dp2468
g14
F49.15301703
sg37
S'http://cosmos.surrey.ca/TrafficCameraImages/enc_fraser_164_cam1.jpg'
p2469
sg27
Fnan
sg23
S'Fraser Hwy And 164 St'
p2470
sg30
F-122.76774650000002
sbasbag1
(g2
g3
Ntp2471
Rp2472
(dp2473
g7
g1
(g8
g3
Ntp2474
Rp2475
(dp2476
g12
g13
sg14
F49.045660999999996
sg15
F234.0
sg16
g17
sg18
I20120920
sg19
g59
sg21
g22
sg23
S'24 Avenue and 148 Street'
p2477
sg25
Fnan
sg26
I4
sg27
Fnan
sg28
g29
sg30
F-122.81226200000002
sbsg31
(lp2478
g1
(g33
g3
Ntp2479
Rp2480
(dp2481
g14
F49.04553779
sg37
S'http://cosmos.surrey.ca/TrafficCameraImages/enc_24_148_cam1.jpg'
p2482
sg27
Fnan
sg23
S'24 Ave And 148 St'
p2483
sg30
F-122.8123668
sbasbag1
(g2
g3
Ntp2484
Rp2485
(dp2486
g7
g1
(g8
g3
Ntp2487
Rp2488
(dp2489
g12
g13
sg14
F49.031076
sg15
F401.0
sg16
g187
sg18
I20120920
sg19
g59
sg21
Fnan
sg23
S'16 Avenue andKent Street'
p2490
sg25
Fnan
sg26
I2
sg27
Fnan
sg28
g29
sg30
F-122.78461999999999
sbsg31
(lp2491
sbag1
(g2
g3
Ntp2492
Rp2493
(dp2494
g7
g1
(g8
g3
Ntp2495
Rp2496
(dp2497
g12
g13
sg14
F49.176896
sg15
F11.0
sg16
g17
sg18
I20120516
sg19
g20
sg21
g22
sg23
S'96 Avenue and 156 Street'
p2498
sg25
F2011.0
sg26
I4
sg27
Fnan
sg28
g29
sg30
F-122.789961
sbsg31
(lp2499
g1
(g33
g3
Ntp2500
Rp2501
(dp2502
g14
F49.17675964
sg37
S'http://cosmos.surrey.ca/TrafficCameraImages/enc_96_156_cam1.jpg'
p2503
sg27
Fnan
sg23
S'96 Ave And 156 St'
p2504
sg30
F-122.7901027
sbasbag1
(g2
g3
Ntp2505
Rp2506
(dp2507
g7
g1
(g8
g3
Ntp2508
Rp2509
(dp2510
g12
g13
sg14
F49.034008
sg15
Fnan
sg16
g17
sg18
I20141211
sg19
Fnan
sg21
Fnan
sg23
S'King George Blvd and 160 Street'
p2511
sg25
F2013.0
sg26
I4
sg27
Fnan
sg28
g29
sg30
F-122.779198
sbsg31
(lp2512
g1
(g33
g3
Ntp2513
Rp2514
(dp2515
g14
F49.03378103
sg37
S'http://cosmos.surrey.ca/TrafficCameraImages/enc_kgbv_160_cam1.jpg'
p2516
sg27
Fnan
sg23
S'King George Blvd And 160 St'
p2517
sg30
F-122.779072
sbasbag1
(g2
g3
Ntp2518
Rp2519
(dp2520
g7
g1
(g8
g3
Ntp2521
Rp2522
(dp2523
g12
g13
sg14
F49.162775
sg15
F435.0
sg16
g17
sg18
I20141211
sg19
g59
sg21
Fnan
sg23
S'88 Avenue and 162 Street'
p2524
sg25
F2014.0
sg26
I4
sg27
Fnan
sg28
g29
sg30
F-122.773214
sbsg31
(lp2525
g1
(g33
g3
Ntp2526
Rp2527
(dp2528
g14
F49.16273691
sg37
S'http://cosmos.surrey.ca/TrafficCameraImages/enc_88_162_cam1.jpg'
p2529
sg27
Fnan
sg23
S'88 Ave And 162 St'
p2530
sg30
F-122.7730504
sbasbag1
(g2
g3
Ntp2531
Rp2532
(dp2533
g7
g1
(g8
g3
Ntp2534
Rp2535
(dp2536
g12
g13
sg14
F49.06015
sg15
F294.0
sg16
g17
sg18
I20130322
sg19
g59
sg21
Fnan
sg23
S'Hwy 15 & 32 Ave'
p2537
sg25
F2008.0
sg26
I4
sg27
Fnan
sg28
g29
sg30
F-122.73538300000001
sbsg31
(lp2538
sbag1
(g2
g3
Ntp2539
Rp2540
(dp2541
g7
g1
(g8
g3
Ntp2542
Rp2543
(dp2544
g12
g13
sg14
F49.108124
sg15
F263.0
sg16
g17
sg18
I20130322
sg19
g59
sg21
Fnan
sg23
S'Hwy 10 & 128 St'
p2545
sg25
F2007.0
sg26
I4
sg27
Fnan
sg28
g29
sg30
F-122.867842
sbsg31
(lp2546
sbag1
(g2
g3
Ntp2547
Rp2548
(dp2549
g7
g1
(g8
g3
Ntp2550
Rp2551
(dp2552
g12
g13
sg14
F49.10523
sg15
F315.0
sg16
g17
sg18
I20130322
sg19
g59
sg21
Fnan
sg23
g1847
sg25
F2007.0
sg26
I4
sg27
Fnan
sg28
g29
sg30
F-122.832176
sbsg31
(lp2553
g1
(g33
g3
Ntp2554
Rp2555
(dp2556
g14
F49.10537864
sg37
S'http://cosmos.surrey.ca/TrafficCameraImages/enc_no10_kgbv_cam1.jpg'
p2557
sg27
Fnan
sg23
S'56 Ave And King George Blvd'
p2558
sg30
F-122.83197879999999
sbasbag1
(g2
g3
Ntp2559
Rp2560
(dp2561
g7
g1
(g8
g3
Ntp2562
Rp2563
(dp2564
g12
g13
sg14
F49.016662
sg15
F204.0
sg16
g17
sg18
I20130322
sg19
g59
sg21
Fnan
sg23
S'Hwy 15 & 8 Ave'
p2565
sg25
F2006.0
sg26
I4
sg27
Fnan
sg28
g29
sg30
F-122.735231
sbsg31
(lp2566
g1
(g33
g3
Ntp2567
Rp2568
(dp2569
g14
F49.01657723
sg37
S'http://images.drivebc.ca/bchighwaycam/pub/cameras/477.jpg'
p2570
sg27
Fnan
sg23
S'176 St And 8 Ave'
p2571
sg30
F-122.73524450000001
sbag1
(g33
g3
Ntp2572
Rp2573
(dp2574
g14
F49.01673857
sg37
S'http://images.drivebc.ca/bchighwaycam/pub/cameras/447.jpg'
p2575
sg27
Fnan
sg23
g2571
sg30
F-122.7352307
sbasbag1
(g2
g3
Ntp2576
Rp2577
(dp2578
g7
g1
(g8
g3
Ntp2579
Rp2580
(dp2581
g12
g13
sg14
F49.031236
sg15
F134.0
sg16
g17
sg18
I20130322
sg19
g59
sg21
Fnan
sg23
S'Hwy 15 & 16 Ave'
p2582
sg25
Fnan
sg26
I4
sg27
Fnan
sg28
g29
sg30
F-122.735175
sbsg31
(lp2583
sbag1
(g2
g3
Ntp2584
Rp2585
(dp2586
g7
g1
(g8
g3
Ntp2587
Rp2588
(dp2589
g12
g13
sg14
F49.016621
sg15
F272.0
sg16
g17
sg18
I20130322
sg19
g59
sg21
Fnan
sg23
S'8 Ave & 172 St'
p2590
sg25
F2006.0
sg26
I4
sg27
Fnan
sg28
g29
sg30
F-122.74630800000001
sbsg31
(lp2591
sbag1
(g2
g3
Ntp2592
Rp2593
(dp2594
g7
g1
(g8
g3
Ntp2595
Rp2596
(dp2597
g12
g13
sg14
F49.196985
sg15
F118.0
sg16
g17
sg18
I20130322
sg19
g59
sg21
Fnan
sg23
S'152 St & Guildford Dr, South of Hwy 1'
p2598
sg25
Fnan
sg26
I4
sg27
Fnan
sg28
g29
sg30
F-122.80051499999999
sbsg31
(lp2599
sbag1
(g2
g3
Ntp2600
Rp2601
(dp2602
g7
g1
(g8
g3
Ntp2603
Rp2604
(dp2605
g12
g13
sg14
F49.162588
sg15
F236.0
sg16
g17
sg18
I20130322
sg19
g59
sg21
Fnan
sg23
S'Hwy 15 & 88 Ave'
p2606
sg25
F2008.0
sg26
I4
sg27
Fnan
sg28
g29
sg30
F-122.73471200000002
sbsg31
(lp2607
sbag1
(g2
g3
Ntp2608
Rp2609
(dp2610
g7
g1
(g8
g3
Ntp2611
Rp2612
(dp2613
g12
g13
sg14
F49.148037
sg15
F320.0
sg16
g17
sg18
I20130322
sg19
g59
sg21
Fnan
sg23
S'Hwy 15 & 80 Ave'
p2614
sg25
F2008.0
sg26
I4
sg27
Fnan
sg28
g29
sg30
F-122.734801
sbsg31
(lp2615
sbag1
(g2
g3
Ntp2616
Rp2617
(dp2618
g7
g1
(g8
g3
Ntp2619
Rp2620
(dp2621
g12
g13
sg14
F49.13813
sg15
F311.0
sg16
g17
sg18
I20130322
sg19
g59
sg21
Fnan
sg23
S'Hwy 15 & Fraser Hwy'
p2622
sg25
F2008.0
sg26
I4
sg27
Fnan
sg28
g29
sg30
F-122.73474499999999
sbsg31
(lp2623
g1
(g33
g3
Ntp2624
Rp2625
(dp2626
g14
F49.13778797
sg37
S'http://images.drivebc.ca/bchighwaycam/pub/cameras/94.jpg'
p2627
sg27
F180.0
sg23
S'Fraser Hwy And 176 St'
p2628
sg30
F-122.73473100000001
sbag1
(g33
g3
Ntp2629
Rp2630
(dp2631
g14
F49.13795402
sg37
S'http://images.drivebc.ca/bchighwaycam/pub/cameras/93.jpg'
p2632
sg27
F125.0
sg23
g2628
sg30
F-122.7342902
sbag1
(g33
g3
Ntp2633
Rp2634
(dp2635
g14
F49.13847717
sg37
S'http://images.drivebc.ca/bchighwaycam/pub/cameras/86.jpg'
p2636
sg27
Fnan
sg23
g2628
sg30
F-122.73472679999999
sbasbag1
(g2
g3
Ntp2637
Rp2638
(dp2639
g7
g1
(g8
g3
Ntp2640
Rp2641
(dp2642
g12
g13
sg14
F49.127225
sg15
F148.0
sg16
g17
sg18
I20130322
sg19
g59
sg21
Fnan
sg23
S'Hwy 15 & 68A Ave'
p2643
sg25
F2008.0
sg26
I4
sg27
Fnan
sg28
g29
sg30
F-122.734802
sbsg31
(lp2644
sbag1
(g2
g3
Ntp2645
Rp2646
(dp2647
g7
g1
(g8
g3
Ntp2648
Rp2649
(dp2650
g12
g13
sg14
F49.002565000000004
sg15
Fnan
sg16
g17
sg18
I20130322
sg19
Fnan
sg21
Fnan
sg23
S'hwy 99 near border'
p2651
sg25
Fnan
sg26
I4
sg27
Fnan
sg28
g29
sg30
F-122.75741599999999
sbsg31
(lp2652
sbag1
(g2
g3
Ntp2653
Rp2654
(dp2655
g7
g1
(g8
g3
Ntp2656
Rp2657
(dp2658
g12
g13
sg14
F49.031071000000004
sg15
F270.0
sg16
g17
sg18
I20141218
sg19
g20
sg21
g22
sg23
S'King George Blvd and 16 Avenue'
p2659
sg25
F2014.0
sg26
I4
sg27
Fnan
sg28
g29
sg30
F-122.775558
sbsg31
(lp2660
g1
(g33
g3
Ntp2661
Rp2662
(dp2663
g14
F49.0311406
sg37
S'http://cosmos.surrey.ca/TrafficCameraImages/enc_16_kgbv_cam1.jpg'
p2664
sg27
Fnan
sg23
S'16 Ave And King George Blvd'
p2665
sg30
F-122.77581
sbasbag1
(g2
g3
Ntp2666
Rp2667
(dp2668
g7
g1
(g8
g3
Ntp2669
Rp2670
(dp2671
g12
g186
sg14
F49.104465999999995
sg15
F113.0
sg16
g17
sg18
I20130322
sg19
g59
sg21
Fnan
sg23
S'Hwy 10 @ Panorama Dr'
p2672
sg25
Fnan
sg26
I4
sg27
Fnan
sg28
g29
sg30
F-122.806184
sbsg31
(lp2673
sbag1
(g2
g3
Ntp2674
Rp2675
(dp2676
g7
g1
(g8
g3
Ntp2677
Rp2678
(dp2679
g12
g13
sg14
F49.162765
sg15
F114.0
sg16
g17
sg18
I20141010
sg19
g20
sg21
g22
sg23
S'88 Avenue and Bear Crk Park Access'
p2680
sg25
Fnan
sg26
I4
sg27
Fnan
sg28
g29
sg30
F-122.84101399999999
sbsg31
(lp2681
g1
(g33
g3
Ntp2682
Rp2683
(dp2684
g14
F49.16276735
sg37
S'http://cosmos.surrey.ca/TrafficCameraImages/enc_88_bearcreekpark_cam1.jpg'
p2685
sg27
Fnan
sg23
S'88 Ave And Bear Creek Park Access'
p2686
sg30
F-122.84100259999998
sbasbag1
(g2
g3
Ntp2687
Rp2688
(dp2689
g7
g1
(g8
g3
Ntp2690
Rp2691
(dp2692
g12
g13
sg14
F49.11877
sg15
F165.0
sg16
g17
sg18
I20141010
sg19
g59
sg21
g22
sg23
S'64 Avenue and 177B Street'
p2693
sg25
Fnan
sg26
I4
sg27
Fnan
sg28
g29
sg30
F-122.730814
sbsg31
(lp2694
g1
(g33
g3
Ntp2695
Rp2696
(dp2697
g14
F49.11877005
sg37
S'http://cosmos.surrey.ca/TrafficCameraImages/enc_64_177b_cam1.jpg'
p2698
sg27
Fnan
sg23
S'64 Ave And 177B St'
p2699
sg30
F-122.73081370000001
sbasbag1
(g2
g3
Ntp2700
Rp2701
(dp2702
g7
g1
(g8
g3
Ntp2703
Rp2704
(dp2705
g12
g13
sg14
F49.060314
sg15
F111.0
sg16
g17
sg18
I20141010
sg19
g20
sg21
g22
sg23
S'32 Avenue and 32 Avenue Diversion'
p2706
sg25
Fnan
sg26
I4
sg27
Fnan
sg28
g29
sg30
F-122.80712
sbsg31
(lp2707
g1
(g33
g3
Ntp2708
Rp2709
(dp2710
g14
F49.06029431
sg37
S'http://cosmos.surrey.ca/TrafficCameraImages/enc_32_32div_cam1.jpg'
p2711
sg27
Fnan
sg23
S'32 Ave And 32 Ave Div'
p2712
sg30
F-122.80711229999999
sbasbag1
(g2
g3
Ntp2713
Rp2714
(dp2715
g7
g1
(g8
g3
Ntp2716
Rp2717
(dp2718
g12
g13
sg14
F49.161953999999994
sg15
Fnan
sg16
g17
sg18
I20141010
sg19
Fnan
sg21
g22
sg23
S'Nordel Way and Mall Access'
p2719
sg25
Fnan
sg26
I4
sg27
Fnan
sg28
g29
sg30
F-122.887901
sbsg31
(lp2720
g1
(g33
g3
Ntp2721
Rp2722
(dp2723
g14
F49.161957
sg37
S'http://cosmos.surrey.ca/TrafficCameraImages/enc_nordel_mall_cam1.jpg'
p2724
sg27
Fnan
sg23
S'Nordel Way And Mall Access'
p2725
sg30
F-122.88794080000001
sbasbag1
(g2
g3
Ntp2726
Rp2727
(dp2728
g7
g1
(g8
g3
Ntp2729
Rp2730
(dp2731
g12
g13
sg14
F49.184338000000004
sg15
F120.0
sg16
g17
sg18
I20141010
sg19
g20
sg21
Fnan
sg23
S'100 Avenue and Mall Access'
p2732
sg25
Fnan
sg26
I4
sg27
Fnan
sg28
g29
sg30
F-122.847176
sbsg31
(lp2733
g1
(g33
g3
Ntp2734
Rp2735
(dp2736
g14
F49.18426603
sg37
S'http://cosmos.surrey.ca/TrafficCameraImages/enc_mallaccess_oldyale_cam1.jpg'
p2737
sg27
Fnan
sg23
S'Old Yale Rd And Mall Access'
p2738
sg30
F-122.84734579999999
sbasbag1
(g2
g3
Ntp2739
Rp2740
(dp2741
g7
g1
(g8
g3
Ntp2742
Rp2743
(dp2744
g12
g13
sg14
F49.19885
sg15
Fnan
sg16
g17
sg18
I20141010
sg19
Fnan
sg21
g22
sg23
S'108 Avenue and 156 Street'
p2745
sg25
Fnan
sg26
I4
sg27
Fnan
sg28
g29
sg30
F-122.789773
sbsg31
(lp2746
sbag1
(g2
g3
Ntp2747
Rp2748
(dp2749
g7
g1
(g8
g3
Ntp2750
Rp2751
(dp2752
g12
g13
sg14
F49.119008
sg15
Fnan
sg16
g187
sg18
I20141010
sg19
Fnan
sg21
Fnan
sg23
S'64 Ave  13300 Blk'
p2753
sg25
F2014.0
sg26
I2
sg27
Fnan
sg28
g29
sg30
F-122.85368400000002
sbsg31
(lp2754
sbag1
(g2
g3
Ntp2755
Rp2756
(dp2757
g7
g1
(g8
g3
Ntp2758
Rp2759
(dp2760
g12
g13
sg14
F49.033842
sg15
Fnan
sg16
g187
sg18
I20141010
sg19
Fnan
sg21
Fnan
sg23
S'17A Ave  152 St'
p2761
sg25
Fnan
sg26
I2
sg27
Fnan
sg28
g29
sg30
F-122.801184
sbsg31
(lp2762
sbag1
(g2
g3
Ntp2763
Rp2764
(dp2765
g7
g1
(g8
g3
Ntp2766
Rp2767
(dp2768
g12
g13
sg14
F49.177124
sg15
F330.0
sg16
g17
sg18
I20141010
sg19
g59
sg21
Fnan
sg23
Fnan
sg25
Fnan
sg26
I4
sg27
Fnan
sg28
g29
sg30
F-122.901169
sbsg31
(lp2769
sbag1
(g2
g3
Ntp2770
Rp2771
(dp2772
g7
g1
(g8
g3
Ntp2773
Rp2774
(dp2775
g12
g13
sg14
F49.189044
sg15
Fnan
sg16
g187
sg18
I20141010
sg19
g59
sg21
Fnan
sg23
Fnan
sg25
Fnan
sg26
I2
sg27
Fnan
sg28
g29
sg30
F-122.848949
sbsg31
(lp2776
sbag1
(g2
g3
Ntp2777
Rp2778
(dp2779
g7
g1
(g8
g3
Ntp2780
Rp2781
(dp2782
g12
g13
sg14
F49.205565
sg15
F129.0
sg16
g17
sg18
I20141010
sg19
g59
sg21
Fnan
sg23
S'Scott Rd N/B and Scott Rd'
p2783
sg25
Fnan
sg26
I4
sg27
Fnan
sg28
g29
sg30
F-122.874502
sbsg31
(lp2784
g1
(g33
g3
Ntp2785
Rp2786
(dp2787
g14
F49.20554614
sg37
S'http://cosmos.surrey.ca/TrafficCameraImages/enc_kgbv_120_cam1.jpg'
p2788
sg27
Fnan
sg23
S'King George Blvd And 120 St'
p2789
sg30
F-122.8744071
sbasbag1
(g2
g3
Ntp2790
Rp2791
(dp2792
g7
g1
(g8
g3
Ntp2793
Rp2794
(dp2795
g12
g13
sg14
F49.205949
sg15
F146.0
sg16
g17
sg18
I20141010
sg19
g20
sg21
Fnan
sg23
Fnan
sg25
Fnan
sg26
I4
sg27
Fnan
sg28
g29
sg30
F-122.874931
sbsg31
(lp2796
sbag1
(g2
g3
Ntp2797
Rp2798
(dp2799
g7
g1
(g8
g3
Ntp2800
Rp2801
(dp2802
g12
g13
sg14
F49.16648
sg15
Fnan
sg16
g187
sg18
I20141010
sg19
Fnan
sg21
Fnan
sg23
S'90 Ave & 140 St'
p2803
sg25
F2012.0
sg26
I2
sg27
Fnan
sg28
g29
sg30
F-122.834627
sbsg31
(lp2804
sbag1
(g2
g3
Ntp2805
Rp2806
(dp2807
g7
g1
(g8
g3
Ntp2808
Rp2809
(dp2810
g12
g13
sg14
F49.048026
sg15
Fnan
sg16
g17
sg18
I20141010
sg19
Fnan
sg21
Fnan
sg23
S'NW Mall Access & Croydon Drive'
p2811
sg25
F2011.0
sg26
I4
sg27
Fnan
sg28
g29
sg30
F-122.787423
sbsg31
(lp2812
sbag1
(g2
g3
Ntp2813
Rp2814
(dp2815
g7
g1
(g8
g3
Ntp2816
Rp2817
(dp2818
g12
g13
sg14
F49.162095
sg15
F176.0
sg16
g1300
sg18
I20141010
sg19
g59
sg21
Fnan
sg23
Fnan
sg25
Fnan
sg26
I4
sg27
Fnan
sg28
g29
sg30
F-122.886173
sbsg31
(lp2819
sbag1
(g2
g3
Ntp2820
Rp2821
(dp2822
g7
g1
(g8
g3
Ntp2823
Rp2824
(dp2825
g12
g13
sg14
F49.177
sg15
F3.0
sg16
g17
sg18
I20131015
sg19
g59
sg21
g22
sg23
S'96 Avenue and Green Timbers Way'
p2826
sg25
Fnan
sg26
I4
sg27
Fnan
sg28
g29
sg30
F-122.825025
sbsg31
(lp2827
g1
(g33
g3
Ntp2828
Rp2829
(dp2830
g14
F49.17690896
sg37
S'http://cosmos.surrey.ca/TrafficCameraImages/enc_96_greentimbers_cam1.jpg'
p2831
sg27
Fnan
sg23
S'96 Ave And Green Timbers Way'
p2832
sg30
F-122.82483640000001
sbasbag1
(g2
g3
Ntp2833
Rp2834
(dp2835
g7
g1
(g8
g3
Ntp2836
Rp2837
(dp2838
g12
g13
sg14
F49.162631
sg15
Fnan
sg16
g187
sg18
I20141215
sg19
Fnan
sg21
Fnan
sg23
S'88 Avenue and 130 Street'
p2839
sg25
F2014.0
sg26
I2
sg27
Fnan
sg28
g29
sg30
F-122.86246499999999
sbsg31
(lp2840
g1
(g33
g3
Ntp2841
Rp2842
(dp2843
g14
F49.16263097
sg37
S'http://cosmos.surrey.ca/TrafficCameraImages/enc_88_130_cam1.jpg'
p2844
sg27
Fnan
sg23
S'88 Ave And 130 St'
p2845
sg30
F-122.86246509999998
sbasbag1
(g2
g3
Ntp2846
Rp2847
(dp2848
g7
g1
(g8
g3
Ntp2849
Rp2850
(dp2851
g12
g13
sg14
F49.032963
sg15
Fnan
sg16
g187
sg18
I20141215
sg19
g59
sg21
Fnan
sg23
S'17 Avenue and 148 Street'
p2852
sg25
F2014.0
sg26
I2
sg27
Fnan
sg28
g29
sg30
F-122.81222199999999
sbsg31
(lp2853
sbag1
(g2
g3
Ntp2854
Rp2855
(dp2856
g7
g1
(g8
g3
Ntp2857
Rp2858
(dp2859
g12
g13
sg14
F49.060116
sg15
F211.0
sg16
g17
sg18
I20150902
sg19
g59
sg21
g22
sg23
S'32 Avenue and 192 Street'
p2860
sg25
F2015.0
sg26
I4
sg27
Fnan
sg28
g29
sg30
F-122.691534
sbsg31
(lp2861
g1
(g33
g3
Ntp2862
Rp2863
(dp2864
g14
F49.06020363
sg37
S'http://cosmos.surrey.ca/TrafficCameraImages/enc_32_192_cam1.jpg'
p2865
sg27
Fnan
sg23
S'32 Ave And 192 St'
p2866
sg30
F-122.69136040000001
sbasbag1
(g2
g3
Ntp2867
Rp2868
(dp2869
g7
g1
(g8
g3
Ntp2870
Rp2871
(dp2872
g12
g13
sg14
F49.134018
sg15
F171.0
sg16
g17
sg18
I20151013
sg19
g20
sg21
g22
sg23
S'72 Avenue and 122 Street'
p2873
sg25
F2015.0
sg26
I4
sg27
Fnan
sg28
g29
sg30
F-122.884822
sbsg31
(lp2874
g1
(g33
g3
Ntp2875
Rp2876
(dp2877
g14
F49.13401804
sg37
S'http://cosmos.surrey.ca/TrafficCameraImages/enc_72_122_cam1.jpg'
p2878
sg27
Fnan
sg23
S'72 Ave And 122 St'
p2879
sg30
F-122.88482150000002
sbasbag1
(g2
g3
Ntp2880
Rp2881
(dp2882
g7
g1
(g8
g3
Ntp2883
Rp2884
(dp2885
g12
g13
sg14
F49.213234
sg15
Fnan
sg16
g17
sg18
I20160407
sg19
Fnan
sg21
Fnan
sg23
Fnan
sg25
F2014.0
sg26
I4
sg27
Fnan
sg28
g29
sg30
F-122.86185400000001
sbsg31
(lp2886
sbag1
(g2
g3
Ntp2887
Rp2888
(dp2889
g7
g1
(g8
g3
Ntp2890
Rp2891
(dp2892
g12
g13
sg14
F49.213119
sg15
Fnan
sg16
g17
sg18
I20160407
sg19
Fnan
sg21
Fnan
sg23
S'136 St & SFPR'
p2893
sg25
F2014.0
sg26
I4
sg27
Fnan
sg28
g29
sg30
F-122.845202
sbsg31
(lp2894
sbag1
(g2
g3
Ntp2895
Rp2896
(dp2897
g7
g1
(g8
g3
Ntp2898
Rp2899
(dp2900
g12
g13
sg14
F49.137458
sg15
F137.0
sg16
g17
sg18
I20120920
sg19
g20
sg21
g22
sg23
S'74 Avenue and 128 Street'
p2901
sg25
Fnan
sg26
I4
sg27
Fnan
sg28
g29
sg30
F-122.867874
sbsg31
(lp2902
g1
(g33
g3
Ntp2903
Rp2904
(dp2905
g14
F49.13745771
sg37
S'http://cosmos.surrey.ca/TrafficCameraImages/enc_74_128_cam1.jpg'
p2906
sg27
Fnan
sg23
S'74 Ave And 128 St'
p2907
sg30
F-122.86787439999999
sbasbag1
(g2
g3
Ntp2908
Rp2909
(dp2910
g7
g1
(g8
g3
Ntp2911
Rp2912
(dp2913
g12
g13
sg14
F49.134087
sg15
F220.0
sg16
g17
sg18
I20120920
sg19
g20
sg21
g22
sg23
S'72 Avenue and 120 Street'
p2914
sg25
Fnan
sg26
I4
sg27
Fnan
sg28
g29
sg30
F-122.890355
sbsg31
(lp2915
g1
(g33
g3
Ntp2916
Rp2917
(dp2918
g14
F49.13396136
sg37
S'http://cosmos.surrey.ca/TrafficCameraImages/enc_72_120_cam1.jpg'
p2919
sg27
Fnan
sg23
S'72 Ave And 120 St'
p2920
sg30
F-122.89013519999999
sbag1
(g33
g3
Ntp2921
Rp2922
(dp2923
g14
F49.13436546
sg37
S'http://cosmos.surrey.ca/TrafficCameraImages/enc_72_120_cam2.jpg'
p2924
sg27
Fnan
sg23
g2920
sg30
F-122.8905271
sbasbag1
(g2
g3
Ntp2925
Rp2926
(dp2927
g7
g1
(g8
g3
Ntp2928
Rp2929
(dp2930
g12
g13
sg14
F49.198754
sg15
F340.0
sg16
g187
sg18
I20120920
sg19
g59
sg21
Fnan
sg23
S'108 Avenue and 146 Street'
p2931
sg25
Fnan
sg26
I2
sg27
Fnan
sg28
g29
sg30
F-122.817426
sbsg31
(lp2932
sbag1
(g2
g3
Ntp2933
Rp2934
(dp2935
g7
g1
(g8
g3
Ntp2936
Rp2937
(dp2938
g12
g13
sg14
F49.176871999999996
sg15
Fnan
sg16
g380
sg18
I20120920
sg19
Fnan
sg21
Fnan
sg23
S'96 Ave & 153A St'
p2939
sg25
F2011.0
sg26
I3
sg27
Fnan
sg28
g29
sg30
F-122.796999
sbsg31
(lp2940
sbag1
(g2
g3
Ntp2941
Rp2942
(dp2943
g7
g1
(g8
g3
Ntp2944
Rp2945
(dp2946
g12
g13
sg14
F49.045728000000004
sg15
F305.0
sg16
g17
sg18
I20120920
sg19
g59
sg21
g22
sg23
S'24 Avenue and 140 Street'
p2947
sg25
Fnan
sg26
I4
sg27
Fnan
sg28
g29
sg30
F-122.83440800000001
sbsg31
(lp2948
g1
(g33
g3
Ntp2949
Rp2950
(dp2951
g14
F49.04572753
sg37
S'http://cosmos.surrey.ca/TrafficCameraImages/enc_24_140_cam1.jpg'
p2952
sg27
Fnan
sg23
S'24 Ave And 140 St'
p2953
sg30
F-122.8344084
sbasbag1
(g2
g3
Ntp2954
Rp2955
(dp2956
g7
g1
(g8
g3
Ntp2957
Rp2958
(dp2959
g12
g13
sg14
F49.133596000000004
sg15
F41.0
sg16
g17
sg18
I20120920
sg19
g20
sg21
g22
sg23
S'72 Avenue and 138 Street'
p2960
sg25
Fnan
sg26
I4
sg27
Fnan
sg28
g29
sg30
F-122.83865300000001
sbsg31
(lp2961
g1
(g33
g3
Ntp2962
Rp2963
(dp2964
g14
F49.13359602
sg37
S'http://cosmos.surrey.ca/TrafficCameraImages/enc_72_138_cam1.jpg'
p2965
sg27
Fnan
sg23
S'72 Ave And 138 St'
p2966
sg30
F-122.83865259999999
sbasbag1
(g2
g3
Ntp2967
Rp2968
(dp2969
g7
g1
(g8
g3
Ntp2970
Rp2971
(dp2972
g12
g13
sg14
F49.155497
sg15
F18.0
sg16
g17
sg18
I20120920
sg19
g59
sg21
Fnan
sg23
S'84 Avenue and 156 Street'
p2973
sg25
Fnan
sg26
I4
sg27
Fnan
sg28
g29
sg30
F-122.790116
sbsg31
(lp2974
sbag1
(g2
g3
Ntp2975
Rp2976
(dp2977
g7
g1
(g8
g3
Ntp2978
Rp2979
(dp2980
g12
g13
sg14
F49.123745
sg15
F55.0
sg16
g17
sg18
I20120920
sg19
g20
sg21
g22
sg23
S'Fraser Highway and 188 Street'
p2981
sg25
Fnan
sg26
I4
sg27
Fnan
sg28
g29
sg30
F-122.701706
sbsg31
(lp2982
g1
(g33
g3
Ntp2983
Rp2984
(dp2985
g14
F49.12351315
sg37
S'http://cosmos.surrey.ca/TrafficCameraImages/enc_fraser_188_cam1.jpg'
p2986
sg27
Fnan
sg23
S'Fraser Hwy And 188 St'
p2987
sg30
F-122.7016491
sbasbag1
(g2
g3
Ntp2988
Rp2989
(dp2990
g7
g1
(g8
g3
Ntp2991
Rp2992
(dp2993
g12
g13
sg14
F49.162027
sg15
F201.0
sg16
g17
sg18
I20120920
sg19
g20
sg21
g22
sg23
S'Nordel Way and 120 Street'
p2994
sg25
Fnan
sg26
I4
sg27
Fnan
sg28
g29
sg30
F-122.89036200000001
sbsg31
(lp2995
g1
(g33
g3
Ntp2996
Rp2997
(dp2998
g14
F49.16188869
sg37
S'http://cosmos.surrey.ca/TrafficCameraImages/enc_nordel_120_cam1.jpg'
p2999
sg27
Fnan
sg23
S'Nordel Way And 120 St'
p3000
sg30
F-122.8901117
sbasbag1
(g2
g3
Ntp3001
Rp3002
(dp3003
g7
g1
(g8
g3
Ntp3004
Rp3005
(dp3006
g12
g13
sg14
F49.133624
sg15
F274.0
sg16
g17
sg18
I20120920
sg19
g20
sg21
g22
sg23
S'72 Avenue and 134 Street'
p3007
sg25
Fnan
sg26
I4
sg27
Fnan
sg28
g29
sg30
F-122.851148
sbsg31
(lp3008
g1
(g33
g3
Ntp3009
Rp3010
(dp3011
g14
F49.13353519
sg37
S'http://cosmos.surrey.ca/TrafficCameraImages/enc_72_comber_cam1.jpg'
p3012
sg27
Fnan
sg23
S'72 Ave And Comber Way'
p3013
sg30
F-122.8510014
sbasbag1
(g2
g3
Ntp3014
Rp3015
(dp3016
g7
g1
(g8
g3
Ntp3017
Rp3018
(dp3019
g12
g13
sg14
F49.169927
sg15
F147.0
sg16
g17
sg18
I20120920
sg19
g59
sg21
g22
sg23
S'92 Avenue and 132 Street'
p3020
sg25
Fnan
sg26
I4
sg27
Fnan
sg28
g29
sg30
F-122.856873
sbsg31
(lp3021
g1
(g33
g3
Ntp3022
Rp3023
(dp3024
g14
F49.16992736
sg37
S'http://cosmos.surrey.ca/TrafficCameraImages/enc_92_132_cam1.jpg'
p3025
sg27
Fnan
sg23
S'92 Ave And 132 St'
p3026
sg30
F-122.856873
sbasbag1
(g2
g3
Ntp3027
Rp3028
(dp3029
g7
g1
(g8
g3
Ntp3030
Rp3031
(dp3032
g12
g13
sg14
F49.191676
sg15
F440.0
sg16
g402
sg18
I20120920
sg19
g59
sg21
Fnan
sg23
Fnan
sg25
Fnan
sg26
I1
sg27
Fnan
sg28
g29
sg30
F-122.86014899999999
sbsg31
(lp3033
sbag1
(g2
g3
Ntp3034
Rp3035
(dp3036
g7
g1
(g8
g3
Ntp3037
Rp3038
(dp3039
g12
g13
sg14
F49.17707
sg15
F230.0
sg16
g17
sg18
I20120920
sg19
g59
sg21
g22
sg23
S'96 Avenue and 134 Street'
p3040
sg25
Fnan
sg26
I4
sg27
Fnan
sg28
g29
sg30
F-122.85126000000001
sbsg31
(lp3041
g1
(g33
g3
Ntp3042
Rp3043
(dp3044
g14
F49.17707018
sg37
S'http://cosmos.surrey.ca/TrafficCameraImages/enc_96_134_cam1.jpg'
p3045
sg27
Fnan
sg23
S'96 Ave And 134 St'
p3046
sg30
F-122.85139679999999
sbasbag1
(g2
g3
Ntp3047
Rp3048
(dp3049
g7
g1
(g8
g3
Ntp3050
Rp3051
(dp3052
g12
g13
sg14
F49.125902
sg15
F188.0
sg16
g17
sg18
I20120920
sg19
g59
sg21
g22
sg23
S'68 Avenue and 184 Street'
p3053
sg25
Fnan
sg26
I4
sg27
Fnan
sg28
g29
sg30
F-122.71257299999999
sbsg31
(lp3054
sbag1
(g2
g3
Ntp3055
Rp3056
(dp3057
g7
g1
(g8
g3
Ntp3058
Rp3059
(dp3060
g12
g13
sg14
F49.061578000000004
sg15
F312.0
sg16
g17
sg18
I20120920
sg19
g20
sg21
g22
sg23
S'32 Avenue Diversion and 152 Street'
p3061
sg25
Fnan
sg26
I4
sg27
Fnan
sg28
g29
sg30
F-122.80118999999999
sbsg31
(lp3062
g1
(g33
g3
Ntp3063
Rp3064
(dp3065
g14
F49.06144988
sg37
S'http://cosmos.surrey.ca/TrafficCameraImages/enc_32_152_cam1.jpg'
p3066
sg27
Fnan
sg23
S'32 Ave And 152 St'
p3067
sg30
F-122.80093229999999
sbasbag1
(g2
g3
Ntp3068
Rp3069
(dp3070
g7
g1
(g8
g3
Ntp3071
Rp3072
(dp3073
g12
g13
sg14
F49.148375
sg15
F61.0
sg16
g17
sg18
I20120920
sg19
g20
sg21
Fnan
sg23
S'80 Avenue and 124 Street'
p3074
sg25
Fnan
sg26
I4
sg27
Fnan
sg28
g29
sg30
F-122.87908999999999
sbsg31
(lp3075
g1
(g33
g3
Ntp3076
Rp3077
(dp3078
g14
F49.14837542
sg37
S'http://cosmos.surrey.ca/TrafficCameraImages/enc_80_124_cam1.jpg'
p3079
sg27
Fnan
sg23
S'80 Ave And 124 St'
p3080
sg30
F-122.8790896
sbasbag1
(g2
g3
Ntp3081
Rp3082
(dp3083
g7
g1
(g8
g3
Ntp3084
Rp3085
(dp3086
g12
g13
sg14
F49.119040000000005
sg15
F250.0
sg16
g17
sg18
I20120920
sg19
g20
sg21
g22
sg23
S'64 Avenue and 152 Street'
p3087
sg25
Fnan
sg26
I4
sg27
Fnan
sg28
g29
sg30
F-122.80099299999999
sbsg31
(lp3088
g1
(g33
g3
Ntp3089
Rp3090
(dp3091
g14
F49.11872688
sg37
S'http://cosmos.surrey.ca/TrafficCameraImages/enc_64_152_cam1.jpg'
p3092
sg27
Fnan
sg23
S'64 Ave And 152 St'
p3093
sg30
F-122.80082949999999
sbasbag1
(g2
g3
Ntp3094
Rp3095
(dp3096
g7
g1
(g8
g3
Ntp3097
Rp3098
(dp3099
g12
g13
sg14
F49.162639
sg15
F214.0
sg16
g17
sg18
I20120920
sg19
g20
sg21
g22
sg23
S'88 Avenue and 132 Street'
p3100
sg25
Fnan
sg26
I4
sg27
Fnan
sg28
g29
sg30
F-122.85691000000001
sbsg31
(lp3101
sbag1
(g2
g3
Ntp3102
Rp3103
(dp3104
g7
g1
(g8
g3
Ntp3105
Rp3106
(dp3107
g12
g13
sg14
F49.119338
sg15
F22.0
sg16
g17
sg18
I20120920
sg19
g20
sg21
g22
sg23
S'64 Avenue and 120 Street'
p3108
sg25
Fnan
sg26
I4
sg27
Fnan
sg28
g29
sg30
F-122.890375
sbsg31
(lp3109
g1
(g33
g3
Ntp3110
Rp3111
(dp3112
g14
F49.11920697
sg37
S'http://cosmos.surrey.ca/TrafficCameraImages/enc_64_120_cam1.jpg'
p3113
sg27
Fnan
sg23
S'64 Ave And 120 St'
p3114
sg30
F-122.8901075
sbasbag1
(g2
g3
Ntp3115
Rp3116
(dp3117
g7
g1
(g8
g3
Ntp3118
Rp3119
(dp3120
g12
g13
sg14
F49.176987
sg15
F162.0
sg16
g17
sg18
I20120920
sg19
g20
sg21
Fnan
sg23
S'96 Avenue and 140 Street'
p3121
sg25
Fnan
sg26
I4
sg27
Fnan
sg28
g29
sg30
F-122.83454099999999
sbsg31
(lp3122
g1
(g33
g3
Ntp3123
Rp3124
(dp3125
g14
F49.17698684
sg37
S'http://cosmos.surrey.ca/TrafficCameraImages/enc_96_140_cam1.jpg'
p3126
sg27
Fnan
sg23
S'96 Ave And 140 St'
p3127
sg30
F-122.8345413
sbasbag1
(g2
g3
Ntp3128
Rp3129
(dp3130
g7
g1
(g8
g3
Ntp3131
Rp3132
(dp3133
g12
g13
sg14
F49.187743
sg15
F56.0
sg16
g17
sg18
I20120920
sg19
g20
sg21
Fnan
sg23
S'University Drive and Mall Entrance'
p3134
sg25
Fnan
sg26
I4
sg27
Fnan
sg28
g29
sg30
F-122.85108999999999
sbsg31
(lp3135
g1
(g33
g3
Ntp3136
Rp3137
(dp3138
g14
F49.18774214
sg37
S'http://cosmos.surrey.ca/TrafficCameraImages/enc_mall_universitydr_cam1.jpg'
p3139
sg27
Fnan
sg23
S'Mall Access And University Dr'
p3140
sg30
F-122.85109369999999
sbasbag1
(g2
g3
Ntp3141
Rp3142
(dp3143
g7
g1
(g8
g3
Ntp3144
Rp3145
(dp3146
g12
g13
sg14
F49.11144
sg15
F74.0
sg16
g17
sg18
I20120920
sg19
g59
sg21
g22
sg23
S'60 Avenue and 180 Street'
p3147
sg25
Fnan
sg26
I4
sg27
Fnan
sg28
g29
sg30
F-122.723803
sbsg31
(lp3148
sbag1
(g2
g3
Ntp3149
Rp3150
(dp3151
g7
g1
(g8
g3
Ntp3152
Rp3153
(dp3154
g12
g13
sg14
F49.170438
sg15
F24.0
sg16
g17
sg18
I20120920
sg19
g20
sg21
g22
sg23
S'92 Avenue and 120 Street'
p3155
sg25
Fnan
sg26
I4
sg27
Fnan
sg28
g29
sg30
F-122.890253
sbsg31
(lp3156
g1
(g33
g3
Ntp3157
Rp3158
(dp3159
g14
F49.17021896
sg37
S'http://cosmos.surrey.ca/TrafficCameraImages/enc_92_120_cam1.jpg'
p3160
sg27
Fnan
sg23
S'92 Ave And 120 St'
p3161
sg30
F-122.8901084
sbasbag1
(g2
g3
Ntp3162
Rp3163
(dp3164
g7
g1
(g8
g3
Ntp3165
Rp3166
(dp3167
g12
g13
sg14
F49.031186
sg15
F446.0
sg16
g187
sg18
I20120920
sg19
g59
sg21
Fnan
sg23
S'16 Avenue and 142 Street'
p3168
sg25
Fnan
sg26
I2
sg27
Fnan
sg28
g29
sg30
F-122.828217
sbsg31
(lp3169
sbag1
(g2
g3
Ntp3170
Rp3171
(dp3172
g7
g1
(g8
g3
Ntp3173
Rp3174
(dp3175
g12
g13
sg14
F49.045602
sg15
F322.0
sg16
g17
sg18
I20120920
sg19
g20
sg21
g22
sg23
S'24 Avenue and 154 Street'
p3176
sg25
Fnan
sg26
I4
sg27
Fnan
sg28
g29
sg30
F-122.795698
sbsg31
(lp3177
g1
(g33
g3
Ntp3178
Rp3179
(dp3180
g14
F49.04560199
sg37
S'http://cosmos.surrey.ca/TrafficCameraImages/enc_24_154_cam1.jpg'
p3181
sg27
Fnan
sg23
S'24 Ave And 154 St'
p3182
sg30
F-122.79569779999999
sbasbag1
(g2
g3
Ntp3183
Rp3184
(dp3185
g7
g1
(g8
g3
Ntp3186
Rp3187
(dp3188
g12
g13
sg14
F49.140986
sg15
F225.0
sg16
g17
sg18
I20120920
sg19
g59
sg21
g22
sg23
S'76 Avenue and 144 Street'
p3189
sg25
Fnan
sg26
I4
sg27
Fnan
sg28
g29
sg30
F-122.82338500000002
sbsg31
(lp3190
g1
(g33
g3
Ntp3191
Rp3192
(dp3193
g14
F49.14098626
sg37
S'http://cosmos.surrey.ca/TrafficCameraImages/enc_76_144_cam1.jpg'
p3194
sg27
Fnan
sg23
S'76 Ave And 144 St'
p3195
sg30
F-122.82338529999998
sbasbag1
(g2
g3
Ntp3196
Rp3197
(dp3198
g7
g1
(g8
g3
Ntp3199
Rp3200
(dp3201
g12
g13
sg14
F49.105627
sg15
Fnan
sg16
g380
sg18
I20141212
sg19
Fnan
sg21
Fnan
sg23
S'57 Ave @  Panorama Dr'
p3202
sg25
F2014.0
sg26
I3
sg27
Fnan
sg28
g29
sg30
F-122.805994
sbsg31
(lp3203
sbag1
(g2
g3
Ntp3204
Rp3205
(dp3206
g7
g1
(g8
g3
Ntp3207
Rp3208
(dp3209
g12
g13
sg14
F49.197253
sg15
Fnan
sg16
g380
sg18
I20141212
sg19
Fnan
sg21
Fnan
sg23
S'10700blk @  150 St'
p3210
sg25
F2014.0
sg26
I3
sg27
Fnan
sg28
g29
sg30
F-122.806227
sbsg31
(lp3211
sbag1
(g2
g3
Ntp3212
Rp3213
(dp3214
g7
g1
(g8
g3
Ntp3215
Rp3216
(dp3217
g12
g13
sg14
F49.106533
sg15
Fnan
sg16
g380
sg18
I20141212
sg19
Fnan
sg21
Fnan
sg23
S'58 Ave @  Panorama Dr'
p3218
sg25
F2014.0
sg26
I3
sg27
Fnan
sg28
g29
sg30
F-122.804782
sbsg31
(lp3219
sbag1
(g2
g3
Ntp3220
Rp3221
(dp3222
g7
g1
(g8
g3
Ntp3223
Rp3224
(dp3225
g12
g13
sg14
F49.031262
sg15
Fnan
sg16
g187
sg18
I20141212
sg19
Fnan
sg21
Fnan
sg23
S'16 Avenue and 132 Street'
p3226
sg25
F2014.0
sg26
I2
sg27
Fnan
sg28
g29
sg30
F-122.85647
sbsg31
(lp3227
sbag1
(g2
g3
Ntp3228
Rp3229
(dp3230
g7
g1
(g8
g3
Ntp3231
Rp3232
(dp3233
g12
g13
sg14
F49.148165999999996
sg15
Fnan
sg16
g380
sg18
I20141212
sg19
Fnan
sg21
Fnan
sg23
S'80 Ave @  133A St'
p3234
sg25
F2014.0
sg26
I3
sg27
Fnan
sg28
g29
sg30
F-122.85282
sbsg31
(lp3235
sbag1
(g2
g3
Ntp3236
Rp3237
(dp3238
g7
g1
(g8
g3
Ntp3239
Rp3240
(dp3241
g12
g13
sg14
F49.035675
sg15
Fnan
sg16
g187
sg18
I20141212
sg19
Fnan
sg21
Fnan
sg23
S'18A Avenue and 148 Street'
p3242
sg25
F2014.0
sg26
I2
sg27
Fnan
sg28
g29
sg30
F-122.81223
sbsg31
(lp3243
sbag1
(g2
g3
Ntp3244
Rp3245
(dp3246
g7
g1
(g8
g3
Ntp3247
Rp3248
(dp3249
g12
g13
sg14
F49.119076
sg15
F174.0
sg16
g17
sg18
I20150423
sg19
g59
sg21
g22
sg23
S'64 Avenue and 196 Street'
p3250
sg25
F2014.0
sg26
I4
sg27
Fnan
sg28
g29
sg30
F-122.67996799999999
sbsg31
(lp3251
sbag1
(g2
g3
Ntp3252
Rp3253
(dp3254
g7
g1
(g8
g3
Ntp3255
Rp3256
(dp3257
g12
g13
sg14
F49.144496000000004
sg15
F399.0
sg16
g17
sg18
I20091106
sg19
g59
sg21
g22
sg23
S'King George Blvd and 78 Avenue'
p3258
sg25
F2009.0
sg26
I4
sg27
Fnan
sg28
g29
sg30
F-122.84565800000001
sbsg31
(lp3259
g1
(g33
g3
Ntp3260
Rp3261
(dp3262
g14
F49.14449602
sg37
S'http://cosmos.surrey.ca/TrafficCameraImages/enc_78_kgbv_cam1.jpg'
p3263
sg27
Fnan
sg23
S'78 Ave And King George Blvd'
p3264
sg30
F-122.8456581
sbasbag1
(g2
g3
Ntp3265
Rp3266
(dp3267
g7
g1
(g8
g3
Ntp3268
Rp3269
(dp3270
g12
g13
sg14
F49.184314
sg15
F285.0
sg16
g17
sg18
I20120920
sg19
g20
sg21
g22
sg23
S'King George Blvd and 100 Avenue'
p3271
sg25
Fnan
sg26
I4
sg27
Fnan
sg28
g29
sg30
F-122.84543400000001
sbsg31
(lp3272
g1
(g33
g3
Ntp3273
Rp3274
(dp3275
g14
F49.18413655
sg37
S'http://cosmos.surrey.ca/TrafficCameraImages/enc_100_kgbv_cam1.jpg'
p3276
sg27
Fnan
sg23
S'100 Ave And King George Blvd'
p3277
sg30
F-122.8456936
sbasbag1
(g2
g3
Ntp3278
Rp3279
(dp3280
g7
g1
(g8
g3
Ntp3281
Rp3282
(dp3283
g12
g13
sg14
F49.157361
sg15
F203.0
sg16
g17
sg18
I20120920
sg19
g20
sg21
g22
sg23
S'Fraser Highway and 160 Street'
p3284
sg25
Fnan
sg26
I4
sg27
Fnan
sg28
g29
sg30
F-122.778846
sbsg31
(lp3285
g1
(g33
g3
Ntp3286
Rp3287
(dp3288
g14
F49.15716912
sg37
S'http://cosmos.surrey.ca/TrafficCameraImages/enc_fraser_160_cam1.jpg'
p3289
sg27
Fnan
sg23
S'Fraser Hwy And 160 St'
p3290
sg30
F-122.77872509999999
sbasbag1
(g2
g3
Ntp3291
Rp3292
(dp3293
g7
g1
(g8
g3
Ntp3294
Rp3295
(dp3296
g12
g13
sg14
F49.148579999999995
sg15
F186.0
sg16
g17
sg18
I20120920
sg19
g20
sg21
Fnan
sg23
S'80 Avenue and 120 Street'
p3297
sg25
Fnan
sg26
I4
sg27
Fnan
sg28
g29
sg30
F-122.890359
sbsg31
(lp3298
g1
(g33
g3
Ntp3299
Rp3300
(dp3301
g14
F49.14846801
sg37
S'http://cosmos.surrey.ca/TrafficCameraImages/enc_80_120_cam1.jpg'
p3302
sg27
Fnan
sg23
S'80 Ave And 120 St'
p3303
sg30
F-122.8905777
sbasbag1
(g2
g3
Ntp3304
Rp3305
(dp3306
g7
g1
(g8
g3
Ntp3307
Rp3308
(dp3309
g12
g13
sg14
F49.177014
sg15
F58.0
sg16
g17
sg18
I20120920
sg19
g20
sg21
Fnan
sg23
S'96 Avenue and 138 Street'
p3310
sg25
Fnan
sg26
I4
sg27
Fnan
sg28
g29
sg30
F-122.83996699999999
sbsg31
(lp3311
g1
(g33
g3
Ntp3312
Rp3313
(dp3314
g14
F49.17711328
sg37
S'http://cosmos.surrey.ca/TrafficCameraImages/enc_96_138_cam1.jpg'
p3315
sg27
Fnan
sg23
S'96 Ave And 138 St'
p3316
sg30
F-122.84015490000002
sbasbag1
(g2
g3
Ntp3317
Rp3318
(dp3319
g7
g1
(g8
g3
Ntp3320
Rp3321
(dp3322
g12
g13
sg14
F49.191599
sg15
F207.0
sg16
g17
sg18
I20120920
sg19
g20
sg21
g22
sg23
S'104 Avenue and 156 Street'
p3323
sg25
Fnan
sg26
I4
sg27
Fnan
sg28
g29
sg30
F-122.78975
sbsg31
(lp3324
g1
(g33
g3
Ntp3325
Rp3326
(dp3327
g14
F49.19149539
sg37
S'http://cosmos.surrey.ca/TrafficCameraImages/enc_104_156_cam1.jpg'
p3328
sg27
Fnan
sg23
S'104 Ave And 156 St'
p3329
sg30
F-122.78958770000001
sbasbag1
(g2
g3
Ntp3330
Rp3331
(dp3332
g7
g1
(g8
g3
Ntp3333
Rp3334
(dp3335
g12
g13
sg14
F49.031098
sg15
F125.0
sg16
g17
sg18
I20120920
sg19
g59
sg21
g22
sg23
S'16 Avenue and 168 Street'
p3336
sg25
Fnan
sg26
I4
sg27
Fnan
sg28
g29
sg30
F-122.75713
sbsg31
(lp3337
g1
(g33
g3
Ntp3338
Rp3339
(dp3340
g14
F49.03099997
sg37
S'http://cosmos.surrey.ca/TrafficCameraImages/enc_16_168_cam1.jpg'
p3341
sg27
Fnan
sg23
S'16 Ave And 168 St'
p3342
sg30
F-122.75698059999999
sbasbag1
(g2
g3
Ntp3343
Rp3344
(dp3345
g7
g1
(g8
g3
Ntp3346
Rp3347
(dp3348
g12
g13
sg14
F49.184360999999996
sg15
F62.0
sg16
g17
sg18
I20120920
sg19
g20
sg21
Fnan
sg23
S'100 Avenue and 156 Street'
p3349
sg25
Fnan
sg26
I4
sg27
Fnan
sg28
g29
sg30
F-122.78979199999999
sbsg31
(lp3350
g1
(g33
g3
Ntp3351
Rp3352
(dp3353
g14
F49.18436117
sg37
S'http://cosmos.surrey.ca/TrafficCameraImages/enc_100_156_cam1.jpg'
p3354
sg27
Fnan
sg23
S'100 Ave And 156 St'
p3355
sg30
F-122.7897923
sbasbag1
(g2
g3
Ntp3356
Rp3357
(dp3358
g7
g1
(g8
g3
Ntp3359
Rp3360
(dp3361
g12
g13
sg14
F49.045547
sg15
F89.0
sg16
g17
sg18
I20120920
sg19
g59
sg21
g22
sg23
S'24 Avenue and 160 Street'
p3362
sg25
Fnan
sg26
I4
sg27
Fnan
sg28
g29
sg30
F-122.77921200000002
sbsg31
(lp3363
g1
(g33
g3
Ntp3364
Rp3365
(dp3366
g14
F49.04539155
sg37
S'http://cosmos.surrey.ca/TrafficCameraImages/enc_24_160_cam1.jpg'
p3367
sg27
Fnan
sg23
S'24 Ave And 160 St'
p3368
sg30
F-122.77891899999999
sbasbag1
(g2
g3
Ntp3369
Rp3370
(dp3371
g7
g1
(g8
g3
Ntp3372
Rp3373
(dp3374
g12
g13
sg14
F49.119109
sg15
F442.0
sg16
g402
sg18
I20120920
sg19
g59
sg21
Fnan
sg23
Fnan
sg25
Fnan
sg26
I1
sg27
Fnan
sg28
g29
sg30
F-122.8098
sbsg31
(lp3375
sbag1
(g2
g3
Ntp3376
Rp3377
(dp3378
g7
g1
(g8
g3
Ntp3379
Rp3380
(dp3381
g12
g13
sg14
F49.193195
sg15
F16.0
sg16
g17
sg18
I20120920
sg19
g20
sg21
g22
sg23
S'105 Avenue and 152 Street'
p3382
sg25
Fnan
sg26
I4
sg27
Fnan
sg28
g29
sg30
F-122.800871
sbsg31
(lp3383
g1
(g33
g3
Ntp3384
Rp3385
(dp3386
g14
F49.19328928
sg37
S'http://cosmos.surrey.ca/TrafficCameraImages/enc_105_152_cam1.jpg'
p3387
sg27
Fnan
sg23
S'105 Ave And 152 St'
p3388
sg30
F-122.80070459999999
sbasbag1
(g2
g3
Ntp3389
Rp3390
(dp3391
g7
g1
(g8
g3
Ntp3392
Rp3393
(dp3394
g12
g13
sg14
F49.119003
sg15
F17.0
sg16
g17
sg18
I20120920
sg19
g20
sg21
g22
sg23
S'64 Avenue and 132 Street'
p3395
sg25
Fnan
sg26
I4
sg27
Fnan
sg28
g29
sg30
F-122.85651100000001
sbsg31
(lp3396
g1
(g33
g3
Ntp3397
Rp3398
(dp3399
g14
F49.11887079
sg37
S'http://cosmos.surrey.ca/TrafficCameraImages/enc_64_132_cam1.jpg'
p3400
sg27
Fnan
sg23
S'64 Ave And 132 St'
p3401
sg30
F-122.8563257
sbasbag1
(g2
g3
Ntp3402
Rp3403
(dp3404
g7
g1
(g8
g3
Ntp3405
Rp3406
(dp3407
g12
g13
sg14
F49.198799
sg15
F180.0
sg16
g17
sg18
I20120920
sg19
g59
sg21
g22
sg23
S'108 Avenue and 160 Street'
p3408
sg25
Fnan
sg26
I4
sg27
Fnan
sg28
g29
sg30
F-122.778671
sbsg31
(lp3409
g1
(g33
g3
Ntp3410
Rp3411
(dp3412
g14
F49.19890104
sg37
S'http://cosmos.surrey.ca/TrafficCameraImages/enc_108_160_cam1.jpg'
p3413
sg27
Fnan
sg23
S'108 Ave And 160 St'
p3414
sg30
F-122.77854380000001
sbasbag1
(g2
g3
Ntp3415
Rp3416
(dp3417
g7
g1
(g8
g3
Ntp3418
Rp3419
(dp3420
g12
g13
sg14
F49.108447999999996
sg15
F258.0
sg16
g17
sg18
I20120920
sg19
g20
sg21
Fnan
sg23
S'Panorama Drive and 152 Street'
p3421
sg25
Fnan
sg26
I4
sg27
Fnan
sg28
g29
sg30
F-122.800992
sbsg31
(lp3422
g1
(g33
g3
Ntp3423
Rp3424
(dp3425
g14
F49.10844807
sg37
S'http://cosmos.surrey.ca/TrafficCameraImages/enc_panorama_152_cam1.jpg'
p3426
sg27
Fnan
sg23
S'Panorama Dr And 152 St'
p3427
sg30
F-122.80099229999999
sbasbag1
(g2
g3
Ntp3428
Rp3429
(dp3430
g7
g1
(g8
g3
Ntp3431
Rp3432
(dp3433
g12
g13
sg14
F49.155494
sg15
F184.0
sg16
g17
sg18
I20120920
sg19
g59
sg21
Fnan
sg23
S'84 Avenue and 140 Street'
p3434
sg25
Fnan
sg26
I4
sg27
Fnan
sg28
g29
sg30
F-122.834601
sbsg31
(lp3435
g1
(g33
g3
Ntp3436
Rp3437
(dp3438
g14
F49.15549362
sg37
S'http://cosmos.surrey.ca/TrafficCameraImages/enc_84_140_cam1.jpg'
p3439
sg27
Fnan
sg23
S'84 Ave And 140 St'
p3440
sg30
F-122.83460120000001
sbasbag1
(g2
g3
Ntp3441
Rp3442
(dp3443
g7
g1
(g8
g3
Ntp3444
Rp3445
(dp3446
g12
g13
sg14
F49.191699
sg15
F70.0
sg16
g17
sg18
I20120920
sg19
g20
sg21
Fnan
sg23
S'104 Avenue and 128 Street'
p3447
sg25
Fnan
sg26
I4
sg27
Fnan
sg28
g29
sg30
F-122.867731
sbsg31
(lp3448
g1
(g33
g3
Ntp3449
Rp3450
(dp3451
g14
F49.19162177
sg37
S'http://cosmos.surrey.ca/TrafficCameraImages/enc_104_128_cam1.jpg'
p3452
sg27
Fnan
sg23
S'104 Ave And 128 St'
p3453
sg30
F-122.8675614
sbasbag1
(g2
g3
Ntp3454
Rp3455
(dp3456
g7
g1
(g8
g3
Ntp3457
Rp3458
(dp3459
g12
g13
sg14
F49.176903
sg15
Fnan
sg16
g380
sg18
I20120920
sg19
Fnan
sg21
Fnan
sg23
S'15910blk 96 Ave'
p3460
sg25
F2011.0
sg26
I3
sg27
Fnan
sg28
g29
sg30
F-122.781452
sbsg31
(lp3461
sbag1
(g2
g3
Ntp3462
Rp3463
(dp3464
g7
g1
(g8
g3
Ntp3465
Rp3466
(dp3467
g12
g13
sg14
F49.184197999999995
sg15
F107.0
sg16
g17
sg18
I20120920
sg19
g20
sg21
g22
sg23
S'100 Avenue and 152 Street'
p3468
sg25
Fnan
sg26
I4
sg27
Fnan
sg28
g29
sg30
F-122.80091599999999
sbsg31
(lp3469
g1
(g33
g3
Ntp3470
Rp3471
(dp3472
g14
F49.18405074
sg37
S'http://cosmos.surrey.ca/TrafficCameraImages/enc_100_152_cam1.jpg'
p3473
sg27
Fnan
sg23
S'100 Ave And 152 St'
p3474
sg30
F-122.8010466
sbasbag1
(g2
g3
Ntp3475
Rp3476
(dp3477
g7
g1
(g8
g3
Ntp3478
Rp3479
(dp3480
g12
g13
sg14
F49.038477
sg15
F112.0
sg16
g17
sg18
I20120920
sg19
g59
sg21
g22
sg23
S'20 Avenue and 140 Street'
p3481
sg25
Fnan
sg26
I4
sg27
Fnan
sg28
g29
sg30
F-122.834368
sbsg31
(lp3482
sbag1
(g2
g3
Ntp3483
Rp3484
(dp3485
g7
g1
(g8
g3
Ntp3486
Rp3487
(dp3488
g12
g13
sg14
F49.180551
sg15
F9.0
sg16
g17
sg18
I20120920
sg19
g20
sg21
g22
sg23
S'King George Blvd and Fraser Hwy'
p3489
sg25
Fnan
sg26
I4
sg27
Fnan
sg28
g29
sg30
F-122.84553100000001
sbsg31
(lp3490
g1
(g33
g3
Ntp3491
Rp3492
(dp3493
g14
F49.180405
sg37
S'http://cosmos.surrey.ca/TrafficCameraImages/enc_98_kgbv_cam1.jpg'
p3494
sg27
Fnan
sg23
S'98 Ave And King George Blvd'
p3495
sg30
F-122.84528130000001
sbasbag1
(g2
g3
Ntp3496
Rp3497
(dp3498
g7
g1
(g8
g3
Ntp3499
Rp3500
(dp3501
g12
g13
sg14
F49.137242
sg15
F243.0
sg16
g17
sg18
I20120920
sg19
g59
sg21
Fnan
sg23
S'74 Avenue and 138 Street'
p3502
sg25
Fnan
sg26
I4
sg27
Fnan
sg28
g29
sg30
F-122.83868100000001
sbsg31
(lp3503
g1
(g33
g3
Ntp3504
Rp3505
(dp3506
g14
F49.13724155
sg37
S'http://cosmos.surrey.ca/TrafficCameraImages/enc_74_138_cam1.jpg'
p3507
sg27
Fnan
sg23
S'74 Ave And 138 St'
p3508
sg30
F-122.8386814
sbasbag1
(g2
g3
Ntp3509
Rp3510
(dp3511
g7
g1
(g8
g3
Ntp3512
Rp3513
(dp3514
g12
g13
sg14
F49.155534
sg15
F282.0
sg16
g17
sg18
I20120920
sg19
g20
sg21
g22
sg23
S'84 Avenue and 152 Street'
p3515
sg25
Fnan
sg26
I4
sg27
Fnan
sg28
g29
sg30
F-122.80142
sbsg31
(lp3516
g1
(g33
g3
Ntp3517
Rp3518
(dp3519
g14
F49.155187700000006
sg37
S'http://cosmos.surrey.ca/TrafficCameraImages/enc_84_152_cam1.jpg'
p3520
sg27
Fnan
sg23
S'84 Ave And 152 St'
p3521
sg30
F-122.8012752
sbasbag1
(g2
g3
Ntp3522
Rp3523
(dp3524
g7
g1
(g8
g3
Ntp3525
Rp3526
(dp3527
g12
g13
sg14
F49.170056
sg15
F122.0
sg16
g17
sg18
I20120920
sg19
g20
sg21
g22
sg23
S'King George Blvd and 92 Avenue'
p3528
sg25
Fnan
sg26
I4
sg27
Fnan
sg28
g29
sg30
F-122.84583700000002
sbsg31
(lp3529
g1
(g33
g3
Ntp3530
Rp3531
(dp3532
g14
F49.170288
sg37
S'http://cosmos.surrey.ca/TrafficCameraImages/enc_92_kgbv_cam1.jpg'
p3533
sg27
Fnan
sg23
S'92 Ave And King George Blvd'
p3534
sg30
F-122.84606969999999
sbasbag1
(g2
g3
Ntp3535
Rp3536
(dp3537
g7
g1
(g8
g3
Ntp3538
Rp3539
(dp3540
g12
g13
sg14
F49.119124
sg15
F265.0
sg16
g17
sg18
I20120920
sg19
g20
sg21
g22
sg23
S'64 Avenue and 144 Street'
p3541
sg25
Fnan
sg26
I4
sg27
Fnan
sg28
g29
sg30
F-122.823299
sbsg31
(lp3542
g1
(g33
g3
Ntp3543
Rp3544
(dp3545
g14
F49.1189947
sg37
S'http://cosmos.surrey.ca/TrafficCameraImages/enc_64_144_cam1.jpg'
p3546
sg27
Fnan
sg23
S'64 Ave And 144 St'
p3547
sg30
F-122.82347069999999
sbasbag1
(g2
g3
Ntp3548
Rp3549
(dp3550
g7
g1
(g8
g3
Ntp3551
Rp3552
(dp3553
g12
g13
sg14
F49.067451
sg15
F29.0
sg16
g17
sg18
I20120920
sg19
g20
sg21
Fnan
sg23
S'King George Blvd and Crescent Road'
p3554
sg25
Fnan
sg26
I4
sg27
Fnan
sg28
g29
sg30
F-122.82064799999999
sbsg31
(lp3555
g1
(g33
g3
Ntp3556
Rp3557
(dp3558
g14
F49.06760453
sg37
S'http://cosmos.surrey.ca/TrafficCameraImages/enc_cres_kgbv_cam1.jpg'
p3559
sg27
Fnan
sg23
S'Crescent Rd And King George Blvd'
p3560
sg30
F-122.82065320000001
sbasbag1
(g2
g3
Ntp3561
Rp3562
(dp3563
g7
g1
(g8
g3
Ntp3564
Rp3565
(dp3566
g12
g13
sg14
F49.126715000000004
sg15
F121.0
sg16
g17
sg18
I20120920
sg19
g20
sg21
Fnan
sg23
S'68 Avenue and 120 Street'
p3567
sg25
Fnan
sg26
I4
sg27
Fnan
sg28
g29
sg30
F-122.89036599999999
sbsg31
(lp3568
g1
(g33
g3
Ntp3569
Rp3570
(dp3571
g14
F49.12671477
sg37
S'http://cosmos.surrey.ca/TrafficCameraImages/enc_68_120_cam1.jpg'
p3572
sg27
Fnan
sg23
S'68 Ave And 120 St'
p3573
sg30
F-122.89036570000002
sbasbag1
(g2
g3
Ntp3574
Rp3575
(dp3576
g7
g1
(g8
g3
Ntp3577
Rp3578
(dp3579
g12
g13
sg14
F49.184178
sg15
F154.0
sg16
g17
sg18
I20120920
sg19
g20
sg21
g22
sg23
S'100 Avenue and 150 Street'
p3580
sg25
Fnan
sg26
I4
sg27
Fnan
sg28
g29
sg30
F-122.806486
sbsg31
(lp3581
g1
(g33
g3
Ntp3582
Rp3583
(dp3584
g14
F49.18417792
sg37
S'http://cosmos.surrey.ca/TrafficCameraImages/enc_100_150_cam1.jpg'
p3585
sg27
Fnan
sg23
S'100 Ave And 150 St'
p3586
sg30
F-122.80648570000001
sbasbag1
(g2
g3
Ntp3587
Rp3588
(dp3589
g7
g1
(g8
g3
Ntp3590
Rp3591
(dp3592
g12
g13
sg14
F49.191485
sg15
F287.0
sg16
g17
sg18
I20120920
sg19
g20
sg21
g22
sg23
S'104 Avenue and 150 Street'
p3593
sg25
Fnan
sg26
I4
sg27
Fnan
sg28
g29
sg30
F-122.806432
sbsg31
(lp3594
g1
(g33
g3
Ntp3595
Rp3596
(dp3597
g14
F49.19137315
sg37
S'http://cosmos.surrey.ca/TrafficCameraImages/enc_104_150_cam1.jpg'
p3598
sg27
Fnan
sg23
S'104 Ave And 150 St'
p3599
sg30
F-122.8065814
sbasbag1
(g2
g3
Ntp3600
Rp3601
(dp3602
g7
g1
(g8
g3
Ntp3603
Rp3604
(dp3605
g12
g13
sg14
F49.176549
sg15
F37.0
sg16
g17
sg18
I20120920
sg19
g20
sg21
g22
sg23
S'Fraser Highway and 96 Avenue'
p3606
sg25
Fnan
sg26
I4
sg27
Fnan
sg28
g29
sg30
F-122.82843700000001
sbsg31
(lp3607
g1
(g33
g3
Ntp3608
Rp3609
(dp3610
g14
F49.17640834
sg37
S'http://cosmos.surrey.ca/TrafficCameraImages/enc_96_fraser_cam1.jpg'
p3611
sg27
Fnan
sg23
S'96 Ave And Fraser Hwy'
p3612
sg30
F-122.82836189999999
sbasbag1
(g2
g3
Ntp3613
Rp3614
(dp3615
g7
g1
(g8
g3
Ntp3616
Rp3617
(dp3618
g12
g13
sg14
F49.118837
sg15
F44.0
sg16
g17
sg18
I20100204
sg19
g59
sg21
g22
sg23
S'64 Avenue and 172 Street'
p3619
sg25
F2005.0
sg26
I4
sg27
Fnan
sg28
g29
sg30
F-122.746002
sbsg31
(lp3620
g1
(g33
g3
Ntp3621
Rp3622
(dp3623
g14
F49.11883684
sg37
S'http://cosmos.surrey.ca/TrafficCameraImages/enc_64_172_cam1.jpg'
p3624
sg27
Fnan
sg23
S'64 Ave And 172 St'
p3625
sg30
F-122.74600190000001
sbasbag1
(g2
g3
Ntp3626
Rp3627
(dp3628
g7
g1
(g8
g3
Ntp3629
Rp3630
(dp3631
g12
g13
sg14
F49.051781
sg15
F244.0
sg16
g17
sg18
I20100303
sg19
g20
sg21
g22
sg23
S'King George Blvd and 152 Street'
p3632
sg25
F2009.0
sg26
I4
sg27
Fnan
sg28
g29
sg30
F-122.80122800000001
sbsg31
(lp3633
g1
(g33
g3
Ntp3634
Rp3635
(dp3636
g14
F49.05139925
sg37
S'http://cosmos.surrey.ca/TrafficCameraImages/enc_kgbv_152_cam1.jpg'
p3637
sg27
Fnan
sg23
S'King George Blvd And 152 St'
p3638
sg30
F-122.8010375
sbasbag1
(g2
g3
Ntp3639
Rp3640
(dp3641
g7
g1
(g8
g3
Ntp3642
Rp3643
(dp3644
g12
g13
sg14
F49.111896
sg15
Fnan
sg16
g1300
sg18
I20100629
sg19
Fnan
sg21
Fnan
sg23
Fnan
sg25
Fnan
sg26
I0
sg27
Fnan
sg28
g29
sg30
F-122.856655
sbsg31
(lp3645
sbag1
(g2
g3
Ntp3646
Rp3647
(dp3648
g7
g1
(g8
g3
Ntp3649
Rp3650
(dp3651
g12
g13
sg14
F49.002140000000004
sg15
Fnan
sg16
g1300
sg18
I20100629
sg19
Fnan
sg21
Fnan
sg23
Fnan
sg25
F2010.0
sg26
I0
sg27
Fnan
sg28
g29
sg30
F-122.73108700000002
sbsg31
(lp3652
sbag1
(g2
g3
Ntp3653
Rp3654
(dp3655
g7
g1
(g8
g3
Ntp3656
Rp3657
(dp3658
g12
g13
sg14
F49.045757
sg15
Fnan
sg16
g1300
sg18
I20100629
sg19
Fnan
sg21
Fnan
sg23
Fnan
sg25
F2010.0
sg26
I0
sg27
Fnan
sg28
g29
sg30
F-122.845469
sbsg31
(lp3659
sbag1
(g2
g3
Ntp3660
Rp3661
(dp3662
g7
g1
(g8
g3
Ntp3663
Rp3664
(dp3665
g12
g13
sg14
F49.170229
sg15
Fnan
sg16
g1300
sg18
I20100629
sg19
Fnan
sg21
Fnan
sg23
Fnan
sg25
F2010.0
sg26
I0
sg27
Fnan
sg28
g29
sg30
F-122.879269
sbsg31
(lp3666
sbag1
(g2
g3
Ntp3667
Rp3668
(dp3669
g7
g1
(g8
g3
Ntp3670
Rp3671
(dp3672
g12
g13
sg14
F49.111856
sg15
F278.0
sg16
g17
sg18
I20120920
sg19
g59
sg21
g22
sg23
S'King George Blvd and 60 Avenue'
p3673
sg25
F2008.0
sg26
I4
sg27
Fnan
sg28
g29
sg30
F-122.840356
sbsg31
(lp3674
g1
(g33
g3
Ntp3675
Rp3676
(dp3677
g14
F49.11185632
sg37
S'http://cosmos.surrey.ca/TrafficCameraImages/enc_60_kgbv_cam1.jpg'
p3678
sg27
Fnan
sg23
S'60 Ave And King George Blvd'
p3679
sg30
F-122.8403557
sbasbag1
(g2
g3
Ntp3680
Rp3681
(dp3682
g7
g1
(g8
g3
Ntp3683
Rp3684
(dp3685
g12
g13
sg14
F49.101698
sg15
F198.0
sg16
g17
sg18
I20120920
sg19
g59
sg21
g22
sg23
S'54A Avenue and 152 Street'
p3686
sg25
Fnan
sg26
I4
sg27
Fnan
sg28
g29
sg30
F-122.80106799999999
sbsg31
(lp3687
g1
(g33
g3
Ntp3688
Rp3689
(dp3690
g14
F49.10169782
sg37
S'http://cosmos.surrey.ca/TrafficCameraImages/enc_54a_152_cam1.jpg'
p3691
sg27
Fnan
sg23
S'54A Ave And 152 St'
p3692
sg30
F-122.8010679
sbasbag1
(g2
g3
Ntp3693
Rp3694
(dp3695
g7
g1
(g8
g3
Ntp3696
Rp3697
(dp3698
g12
g13
sg14
F49.06374
sg15
F71.0
sg16
g17
sg18
I20120920
sg19
g20
sg21
g22
sg23
S'34 Avenue and 152 Street'
p3699
sg25
Fnan
sg26
I4
sg27
Fnan
sg28
g29
sg30
F-122.80118700000001
sbsg31
(lp3700
g1
(g33
g3
Ntp3701
Rp3702
(dp3703
g14
F49.06374022
sg37
S'http://cosmos.surrey.ca/TrafficCameraImages/enc_34_152_cam1.jpg'
p3704
sg27
Fnan
sg23
S'34 Ave And 152 St'
p3705
sg30
F-122.8011868
sbasbag1
(g2
g3
Ntp3706
Rp3707
(dp3708
g7
g1
(g8
g3
Ntp3709
Rp3710
(dp3711
g12
g13
sg14
F49.052918
sg15
F101.0
sg16
g17
sg18
I20120920
sg19
g59
sg21
Fnan
sg23
S'28 Avenue and 148 Street'
p3712
sg25
Fnan
sg26
I4
sg27
Fnan
sg28
g29
sg30
F-122.812281
sbsg31
(lp3713
g1
(g33
g3
Ntp3714
Rp3715
(dp3716
g14
F49.05291767
sg37
S'http://cosmos.surrey.ca/TrafficCameraImages/enc_28_148_cam1.jpg'
p3717
sg27
Fnan
sg23
S'28 Ave And 148 St'
p3718
sg30
F-122.8122815
sbasbag1
(g2
g3
Ntp3719
Rp3720
(dp3721
g7
g1
(g8
g3
Ntp3722
Rp3723
(dp3724
g12
g13
sg14
F49.111724
sg15
F199.0
sg16
g17
sg18
I20120920
sg19
g20
sg21
g22
sg23
S'60 Avenue and 152 Street'
p3725
sg25
Fnan
sg26
I4
sg27
Fnan
sg28
g29
sg30
F-122.800968
sbsg31
(lp3726
g1
(g33
g3
Ntp3727
Rp3728
(dp3729
g14
F49.11171894
sg37
S'http://cosmos.surrey.ca/TrafficCameraImages/enc_60_152_cam1.jpg'
p3730
sg27
Fnan
sg23
S'60 Ave And 152 St'
p3731
sg30
F-122.8009523
sbasbag1
(g2
g3
Ntp3732
Rp3733
(dp3734
g7
g1
(g8
g3
Ntp3735
Rp3736
(dp3737
g12
g13
sg14
F49.038321
sg15
F256.0
sg16
g17
sg18
I20120920
sg19
g20
sg21
g22
sg23
S'King George Blvd and 20 Avenue'
p3738
sg25
Fnan
sg26
I4
sg27
Fnan
sg28
g29
sg30
F-122.784544
sbsg31
(lp3739
g1
(g33
g3
Ntp3740
Rp3741
(dp3742
g14
F49.03814266
sg37
S'http://cosmos.surrey.ca/TrafficCameraImages/enc_20_kgbv_cam1.jpg'
p3743
sg27
Fnan
sg23
S'20 Ave And King George Blvd'
p3744
sg30
F-122.78443109999999
sbasbag1
(g2
g3
Ntp3745
Rp3746
(dp3747
g7
g1
(g8
g3
Ntp3748
Rp3749
(dp3750
g12
g13
sg14
F49.031092
sg15
F68.0
sg16
g17
sg18
I20120920
sg19
g20
sg21
g22
sg23
S'16 Avenue and 156 Street'
p3751
sg25
Fnan
sg26
I4
sg27
Fnan
sg28
g29
sg30
F-122.790196
sbsg31
(lp3752
sbag1
(g2
g3
Ntp3753
Rp3754
(dp3755
g7
g1
(g8
g3
Ntp3756
Rp3757
(dp3758
g12
g13
sg14
F49.170069
sg15
F212.0
sg16
g17
sg18
I20120920
sg19
g20
sg21
Fnan
sg23
S'92 Avenue and 160 Street'
p3759
sg25
Fnan
sg26
I4
sg27
Fnan
sg28
g29
sg30
F-122.778866
sbsg31
(lp3760
sbag1
(g2
g3
Ntp3761
Rp3762
(dp3763
g7
g1
(g8
g3
Ntp3764
Rp3765
(dp3766
g12
g13
sg14
F49.045770000000005
sg15
F160.0
sg16
g17
sg18
I20120920
sg19
g59
sg21
g22
sg23
S'24 Avenue and 128 Street'
p3767
sg25
Fnan
sg26
I4
sg27
Fnan
sg28
g29
sg30
F-122.86738500000001
sbsg31
(lp3768
sbag1
(g2
g3
Ntp3769
Rp3770
(dp3771
g7
g1
(g8
g3
Ntp3772
Rp3773
(dp3774
g12
g13
sg14
F49.031205
sg15
F291.0
sg16
g17
sg18
I20120920
sg19
g59
sg21
g22
sg23
S'16 Avenue and 184 Street'
p3775
sg25
Fnan
sg26
I4
sg27
Fnan
sg28
g29
sg30
F-122.71336000000001
sbsg31
(lp3776
g1
(g33
g3
Ntp3777
Rp3778
(dp3779
g14
F49.03120489
sg37
S'http://cosmos.surrey.ca/TrafficCameraImages/enc_16_184_cam1.jpg'
p3780
sg27
Fnan
sg23
S'16 Ave And 184 St'
p3781
sg30
F-122.7133601
sbasbag1
(g2
g3
Ntp3782
Rp3783
(dp3784
g7
g1
(g8
g3
Ntp3785
Rp3786
(dp3787
g12
g13
sg14
F49.174686
sg15
F456.0
sg16
g17
sg18
I20120920
sg19
g20
sg21
g22
sg23
S'King George Blvd and 94A Avenue'
p3788
sg25
Fnan
sg26
I4
sg27
Fnan
sg28
g29
sg30
F-122.845758
sbsg31
(lp3789
g1
(g33
g3
Ntp3790
Rp3791
(dp3792
g14
F49.174686
sg37
S'http://cosmos.surrey.ca/TrafficCameraImages/enc_94a_kgbv_cam1.jpg'
p3793
sg27
Fnan
sg23
S'94A Ave And King George Blvd'
p3794
sg30
F-122.8457585
sbasbag1
(g2
g3
Ntp3795
Rp3796
(dp3797
g7
g1
(g8
g3
Ntp3798
Rp3799
(dp3800
g12
g13
sg14
F49.18444
sg15
F313.0
sg16
g17
sg18
I20120920
sg19
g20
sg21
g22
sg23
S'100 Avenue and 128 Street'
p3801
sg25
Fnan
sg26
I4
sg27
Fnan
sg28
g29
sg30
F-122.867658
sbsg31
(lp3802
g1
(g33
g3
Ntp3803
Rp3804
(dp3805
g14
F49.18455146
sg37
S'http://cosmos.surrey.ca/TrafficCameraImages/enc_100_128_cam1.jpg'
p3806
sg27
Fnan
sg23
S'100 Ave And 128 St'
p3807
sg30
F-122.8675527
sbasbag1
(g2
g3
Ntp3808
Rp3809
(dp3810
g7
g1
(g8
g3
Ntp3811
Rp3812
(dp3813
g12
g13
sg14
F49.126358
sg15
F93.0
sg16
g17
sg18
I20120920
sg19
g20
sg21
g22
sg23
S'68 Avenue and 152 Street'
p3814
sg25
Fnan
sg26
I4
sg27
Fnan
sg28
g29
sg30
F-122.80103799999999
sbsg31
(lp3815
g1
(g33
g3
Ntp3816
Rp3817
(dp3818
g14
F49.12626043
sg37
S'http://cosmos.surrey.ca/TrafficCameraImages/enc_68_158_cam1.jpg'
p3819
sg27
Fnan
sg23
S'68 Ave And 152 St'
p3820
sg30
F-122.8011598
sbasbag1
(g2
g3
Ntp3821
Rp3822
(dp3823
g7
g1
(g8
g3
Ntp3824
Rp3825
(dp3826
g12
g13
sg14
F49.195376
sg15
F404.0
sg16
g187
sg18
I20120920
sg19
g59
sg21
Fnan
sg23
S'106 Avenue and 132 Street'
p3827
sg25
Fnan
sg26
I2
sg27
Fnan
sg28
g29
sg30
F-122.856458
sbsg31
(lp3828
sbag1
(g2
g3
Ntp3829
Rp3830
(dp3831
g7
g1
(g8
g3
Ntp3832
Rp3833
(dp3834
g12
g13
sg14
F49.18206
sg15
F163.0
sg16
g17
sg18
I20120920
sg19
g59
sg21
g22
sg23
S'Whalley Blvd and Skytrain Access'
p3835
sg25
Fnan
sg26
I4
sg27
Fnan
sg28
g29
sg30
F-122.842097
sbsg31
(lp3836
sbag1
(g2
g3
Ntp3837
Rp3838
(dp3839
g7
g1
(g8
g3
Ntp3840
Rp3841
(dp3842
g12
g13
sg14
F49.031063
sg15
F251.0
sg16
g17
sg18
I20120920
sg19
g59
sg21
g22
sg23
S'16 Avenue and 192 Street'
p3843
sg25
Fnan
sg26
I4
sg27
Fnan
sg28
g29
sg30
F-122.69129199999999
sbsg31
(lp3844
g1
(g33
g3
Ntp3845
Rp3846
(dp3847
g14
F49.03100236
sg37
S'http://cosmos.surrey.ca/TrafficCameraImages/enc_16_192_cam1.jpg'
p3848
sg27
Fnan
sg23
S'16 Ave And 192 St'
p3849
sg30
F-122.69117890000001
sbasbag1
(g2
g3
Ntp3850
Rp3851
(dp3852
g7
g1
(g8
g3
Ntp3853
Rp3854
(dp3855
g12
g13
sg14
F49.045559000000004
sg15
F13.0
sg16
g17
sg18
I20120920
sg19
g59
sg21
g22
sg23
S'24 Avenue and Croydon Drive'
p3856
sg25
Fnan
sg26
I4
sg27
Fnan
sg28
g29
sg30
F-122.7828
sbsg31
(lp3857
g1
(g33
g3
Ntp3858
Rp3859
(dp3860
g14
F49.04555923
sg37
S'http://cosmos.surrey.ca/TrafficCameraImages/enc_24_croydon_cam1.jpg'
p3861
sg27
Fnan
sg23
S'24 Ave And Croydon Dr'
p3862
sg30
F-122.7827999
sbasbag1
(g2
g3
Ntp3863
Rp3864
(dp3865
g7
g1
(g8
g3
Ntp3866
Rp3867
(dp3868
g12
g13
sg14
F49.14232
sg15
F425.0
sg16
g187
sg18
I20120920
sg19
g59
sg21
Fnan
sg23
S'76A Avenue and 120 Street'
p3869
sg25
Fnan
sg26
I2
sg27
Fnan
sg28
g29
sg30
F-122.890354
sbsg31
(lp3870
sbag1
(g2
g3
Ntp3871
Rp3872
(dp3873
g7
g1
(g8
g3
Ntp3874
Rp3875
(dp3876
g12
g13
sg14
F49.166827000000005
sg15
F414.0
sg16
g17
sg18
I20120920
sg19
g20
sg21
g22
sg23
S'90 Avenueand 120 Street'
p3877
sg25
Fnan
sg26
I4
sg27
Fnan
sg28
g29
sg30
F-122.890305
sbsg31
(lp3878
g1
(g33
g3
Ntp3879
Rp3880
(dp3881
g14
F49.16682409
sg37
S'http://cosmos.surrey.ca/TrafficCameraImages/enc_90_120_cam1.jpg'
p3882
sg27
Fnan
sg23
S'90 Ave And 120 St'
p3883
sg30
F-122.89030600000001
sbasbag1
(g2
g3
Ntp3884
Rp3885
(dp3886
g7
g1
(g8
g3
Ntp3887
Rp3888
(dp3889
g12
g13
sg14
F49.170119
sg15
F273.0
sg16
g17
sg18
I20120920
sg19
g59
sg21
g22
sg23
S'92 Avenue and 156 Street'
p3890
sg25
Fnan
sg26
I4
sg27
Fnan
sg28
g29
sg30
F-122.790067
sbsg31
(lp3891
sbag1
(g2
g3
Ntp3892
Rp3893
(dp3894
g7
g1
(g8
g3
Ntp3895
Rp3896
(dp3897
g12
g13
sg14
F49.177172999999996
sg15
F240.0
sg16
g17
sg18
I20120920
sg19
g59
sg21
g22
sg23
S'96 Avenue and 128 Street'
p3898
sg25
Fnan
sg26
I4
sg27
Fnan
sg28
g29
sg30
F-122.86803
sbsg31
(lp3899
g1
(g33
g3
Ntp3900
Rp3901
(dp3902
g14
F49.17728405
sg37
S'http://cosmos.surrey.ca/TrafficCameraImages/enc_96_128_cam1.jpg'
p3903
sg27
Fnan
sg23
S'96 Ave And 128 St'
p3904
sg30
F-122.8681834
sbasbag1
(g2
g3
Ntp3905
Rp3906
(dp3907
g7
g1
(g8
g3
Ntp3908
Rp3909
(dp3910
g12
g13
sg14
F49.119119
sg15
F50.0
sg16
g17
sg18
I20120920
sg19
g20
sg21
Fnan
sg23
S'64 Avenue and 128 Street'
p3911
sg25
Fnan
sg26
I4
sg27
Fnan
sg28
g29
sg30
F-122.867843
sbsg31
(lp3912
g1
(g33
g3
Ntp3913
Rp3914
(dp3915
g14
F49.11925442
sg37
S'http://cosmos.surrey.ca/TrafficCameraImages/enc_64_128_cam1.jpg'
p3916
sg27
Fnan
sg23
S'64 Ave And 128 St'
p3917
sg30
F-122.8680217
sbasbag1
(g2
g3
Ntp3918
Rp3919
(dp3920
g7
g1
(g8
g3
Ntp3921
Rp3922
(dp3923
g12
g13
sg14
F49.034748
sg15
F367.0
sg16
g402
sg18
I20120920
sg19
g59
sg21
Fnan
sg23
Fnan
sg25
Fnan
sg26
I1
sg27
Fnan
sg28
g29
sg30
F-122.802334
sbsg31
(lp3924
sbag1
(g2
g3
Ntp3925
Rp3926
(dp3927
g7
g1
(g8
g3
Ntp3928
Rp3929
(dp3930
g12
g13
sg14
F49.184265
sg15
F27.0
sg16
g17
sg18
I20120920
sg19
g59
sg21
Fnan
sg23
S'100 Avenue and 154 Street'
p3931
sg25
Fnan
sg26
I4
sg27
Fnan
sg28
g29
sg30
F-122.795355
sbsg31
(lp3932
g1
(g33
g3
Ntp3933
Rp3934
(dp3935
g14
F49.18426503
sg37
S'http://cosmos.surrey.ca/TrafficCameraImages/enc_100_154_cam1.jpg'
p3936
sg27
Fnan
sg23
S'100 Ave And 154 St'
p3937
sg30
F-122.7953554
sbasbag1
(g2
g3
Ntp3938
Rp3939
(dp3940
g7
g1
(g8
g3
Ntp3941
Rp3942
(dp3943
g12
g13
sg14
F49.170316
sg15
F267.0
sg16
g17
sg18
I20120920
sg19
g20
sg21
g22
sg23
S'Fraser Highway and 148 Street'
p3944
sg25
Fnan
sg26
I4
sg27
Fnan
sg28
g29
sg30
F-122.81228700000001
sbsg31
(lp3945
sbag1
(g2
g3
Ntp3946
Rp3947
(dp3948
g7
g1
(g8
g3
Ntp3949
Rp3950
(dp3951
g12
g13
sg14
F49.045761999999996
sg15
Fnan
sg16
g1300
sg18
I20100629
sg19
Fnan
sg21
Fnan
sg23
Fnan
sg25
F2010.0
sg26
I0
sg27
Fnan
sg28
g29
sg30
F-122.850951
sbsg31
(lp3952
sbag1
(g2
g3
Ntp3953
Rp3954
(dp3955
g7
g1
(g8
g3
Ntp3956
Rp3957
(dp3958
g12
g13
sg14
F49.060252
sg15
Fnan
sg16
g1300
sg18
I20100629
sg19
Fnan
sg21
Fnan
sg23
Fnan
sg25
F2010.0
sg26
I0
sg27
Fnan
sg28
g29
sg30
F-122.83443700000001
sbsg31
(lp3959
sbag1
(g2
g3
Ntp3960
Rp3961
(dp3962
g7
g1
(g8
g3
Ntp3963
Rp3964
(dp3965
g12
g13
sg14
F49.133633
sg15
F135.0
sg16
g17
sg18
I20100830
sg19
g20
sg21
g22
sg23
S'72 Avenue and 140 Street'
p3966
sg25
F2009.0
sg26
I4
sg27
Fnan
sg28
g29
sg30
F-122.83445400000001
sbsg31
(lp3967
g1
(g33
g3
Ntp3968
Rp3969
(dp3970
g14
F49.13363346
sg37
S'http://cosmos.surrey.ca/TrafficCameraImages/enc_72_140_cam1.jpg'
p3971
sg27
Fnan
sg23
S'72 Ave And 140 St'
p3972
sg30
F-122.83445359999999
sbasbag1
(g2
g3
Ntp3973
Rp3974
(dp3975
g7
g1
(g8
g3
Ntp3976
Rp3977
(dp3978
g12
g13
sg14
F49.105990999999996
sg15
F387.0
sg16
g17
sg18
I20100610
sg19
g59
sg21
Fnan
sg23
S'57 Ave @ Hwy 15'
p3979
sg25
F2009.0
sg26
I4
sg27
Fnan
sg28
g29
sg30
F-122.738254
sbsg31
(lp3980
sbag1
(g2
g3
Ntp3981
Rp3982
(dp3983
g7
g1
(g8
g3
Ntp3984
Rp3985
(dp3986
g12
g13
sg14
F49.129821
sg15
Fnan
sg16
g187
sg18
I20110929
sg19
g59
sg21
g913
sg23
S'70 Avenue and 188 Street'
p3987
sg25
F2009.0
sg26
I2
sg27
Fnan
sg28
g29
sg30
F-122.70167099999999
sbsg31
(lp3988
sbag1
(g2
g3
Ntp3989
Rp3990
(dp3991
g7
g1
(g8
g3
Ntp3992
Rp3993
(dp3994
g12
g13
sg14
F49.15204
sg15
F448.0
sg16
g17
sg18
I20100831
sg19
g59
sg21
g22
sg23
S'82 Avenue and 124 Street'
p3995
sg25
F2009.0
sg26
I4
sg27
Fnan
sg28
g29
sg30
F-122.87909499999999
sbsg31
(lp3996
g1
(g33
g3
Ntp3997
Rp3998
(dp3999
g14
F49.15204035
sg37
S'http://cosmos.surrey.ca/TrafficCameraImages/enc_82_124_cam1.jpg'
p4000
sg27
Fnan
sg23
S'82 Ave And 124 St'
p4001
sg30
F-122.87909450000001
sbasbag1
(g2
g3
Ntp4002
Rp4003
(dp4004
g7
g1
(g8
g3
Ntp4005
Rp4006
(dp4007
g12
g13
sg14
F49.133801
sg15
F452.0
sg16
g17
sg18
I20100831
sg19
g20
sg21
g22
sg23
S'72 Avenue and 130 Street'
p4008
sg25
F2009.0
sg26
I4
sg27
Fnan
sg28
g29
sg30
F-122.862276
sbsg31
(lp4009
g1
(g33
g3
Ntp4010
Rp4011
(dp4012
g14
F49.13380079
sg37
S'http://cosmos.surrey.ca/TrafficCameraImages/enc_72_130_cam1.jpg'
p4013
sg27
Fnan
sg23
S'72 Ave And 130 St'
p4014
sg30
F-122.86227609999999
sbasbag1
(g2
g3
Ntp4015
Rp4016
(dp4017
g7
g1
(g8
g3
Ntp4018
Rp4019
(dp4020
g12
g13
sg14
F49.060065
sg15
F117.0
sg16
g17
sg18
I20111005
sg19
g59
sg21
Fnan
sg23
S'32 Avenue and 160 Street'
p4021
sg25
F2009.0
sg26
I4
sg27
Fnan
sg28
g29
sg30
F-122.77916499999999
sbsg31
(lp4022
g1
(g33
g3
Ntp4023
Rp4024
(dp4025
g14
F49.05996295
sg37
S'http://cosmos.surrey.ca/TrafficCameraImages/enc_32_160_cam1.jpg'
p4026
sg27
Fnan
sg23
S'32 Ave And 160 St'
p4027
sg30
F-122.7792977
sbasbag1
(g2
g3
Ntp4028
Rp4029
(dp4030
g7
g1
(g8
g3
Ntp4031
Rp4032
(dp4033
g12
g13
sg14
F49.118988
sg15
F143.0
sg16
g17
sg18
I20101217
sg19
g20
sg21
g22
sg23
S'Fraser Highway and 64 Avenue'
p4034
sg25
F2010.0
sg26
I4
sg27
Fnan
sg28
g29
sg30
F-122.691309
sbsg31
(lp4035
g1
(g33
g3
Ntp4036
Rp4037
(dp4038
g14
F49.11871739
sg37
S'http://cosmos.surrey.ca/TrafficCameraImages/enc_64_fraser_cam1.jpg'
p4039
sg27
Fnan
sg23
S'64 Ave And Fraser Hwy'
p4040
sg30
F-122.6914297
sbasbag1
(g2
g3
Ntp4041
Rp4042
(dp4043
g7
g1
(g8
g3
Ntp4044
Rp4045
(dp4046
g12
g13
sg14
F49.191537
sg15
F177.0
sg16
g17
sg18
I20120920
sg19
g20
sg21
g22
sg23
S'104 Avenue and 154 Street'
p4047
sg25
Fnan
sg26
I4
sg27
Fnan
sg28
g29
sg30
F-122.795317
sbsg31
(lp4048
g1
(g33
g3
Ntp4049
Rp4050
(dp4051
g14
F49.19142687
sg37
S'http://cosmos.surrey.ca/TrafficCameraImages/enc_104_154_cam1.jpg'
p4052
sg27
Fnan
sg23
S'104 Ave And 154 St'
p4053
sg30
F-122.79575700000001
sbasbag1
(g2
g3
Ntp4054
Rp4055
(dp4056
g7
g1
(g8
g3
Ntp4057
Rp4058
(dp4059
g12
g13
sg14
F49.031205
sg15
F447.0
sg16
g187
sg18
I20120920
sg19
g59
sg21
Fnan
sg23
S'16 Avenue and 144 Street'
p4060
sg25
Fnan
sg26
I2
sg27
Fnan
sg28
g29
sg30
F-122.823282
sbsg31
(lp4061
sbag1
(g2
g3
Ntp4062
Rp4063
(dp4064
g7
g1
(g8
g3
Ntp4065
Rp4066
(dp4067
g12
g13
sg14
F49.198864
sg15
F145.0
sg16
g17
sg18
I20120920
sg19
g20
sg21
g22
sg23
S'108 Avenue and Whalley Boulevard'
p4068
sg25
Fnan
sg26
I4
sg27
Fnan
sg28
g29
sg30
F-122.842623
sbsg31
(lp4069
g1
(g33
g3
Ntp4070
Rp4071
(dp4072
g14
F49.19878837
sg37
S'http://cosmos.surrey.ca/TrafficCameraImages/enc_108_whalley_cam1.jpg'
p4073
sg27
Fnan
sg23
S'108 Ave And Whalley Blvd'
p4074
sg30
F-122.84234359999999
sbasbag1
(g2
g3
Ntp4075
Rp4076
(dp4077
g7
g1
(g8
g3
Ntp4078
Rp4079
(dp4080
g12
g13
sg14
F49.151909
sg15
F280.0
sg16
g17
sg18
I20120920
sg19
g20
sg21
g22
sg23
S'82 Avenue and 152 Street'
p4081
sg25
Fnan
sg26
I4
sg27
Fnan
sg28
g29
sg30
F-122.80129299999999
sbsg31
(lp4082
g1
(g33
g3
Ntp4083
Rp4084
(dp4085
g14
F49.15190856
sg37
S'http://cosmos.surrey.ca/TrafficCameraImages/enc_82_152_cam1.jpg'
p4086
sg27
Fnan
sg23
S'82 Ave And 152 St'
p4087
sg30
F-122.80129309999998
sbasbag1
(g2
g3
Ntp4088
Rp4089
(dp4090
g7
g1
(g8
g3
Ntp4091
Rp4092
(dp4093
g12
g13
sg14
F49.060164
sg15
F260.0
sg16
g17
sg18
I20120920
sg19
g59
sg21
g22
sg23
S'32 Avenue and 184 Street'
p4094
sg25
Fnan
sg26
I4
sg27
Fnan
sg28
g29
sg30
F-122.71343600000002
sbsg31
(lp4095
g1
(g33
g3
Ntp4096
Rp4097
(dp4098
g14
F49.06016176
sg37
S'http://cosmos.surrey.ca/TrafficCameraImages/enc_32_184_cam1.jpg'
p4099
sg27
Fnan
sg23
S'32 Ave And 184 St'
p4100
sg30
F-122.7134357
sbasbag1
(g2
g3
Ntp4101
Rp4102
(dp4103
g7
g1
(g8
g3
Ntp4104
Rp4105
(dp4106
g12
g13
sg14
F49.198757
sg15
F369.0
sg16
g402
sg18
I20120920
sg19
g59
sg21
Fnan
sg23
Fnan
sg25
Fnan
sg26
I1
sg27
Fnan
sg28
g29
sg30
F-122.817825
sbsg31
(lp4107
sbag1
(g2
g3
Ntp4108
Rp4109
(dp4110
g7
g1
(g8
g3
Ntp4111
Rp4112
(dp4113
g12
g13
sg14
F49.133733
sg15
F205.0
sg16
g17
sg18
I20120920
sg19
g20
sg21
g22
sg23
S'72 Avenue and 144 Street'
p4114
sg25
Fnan
sg26
I4
sg27
Fnan
sg28
g29
sg30
F-122.82333
sbsg31
(lp4115
g1
(g33
g3
Ntp4116
Rp4117
(dp4118
g14
F49.13373335
sg37
S'http://cosmos.surrey.ca/TrafficCameraImages/enc_72_144_cam1.jpg'
p4119
sg27
Fnan
sg23
S'72 Ave And 144 St'
p4120
sg30
F-122.82333020000002
sbasbag1
(g2
g3
Ntp4121
Rp4122
(dp4123
g7
g1
(g8
g3
Ntp4124
Rp4125
(dp4126
g12
g13
sg14
F49.061085
sg15
F394.0
sg16
g402
sg18
I20120920
sg19
g59
sg21
Fnan
sg23
Fnan
sg25
Fnan
sg26
I1
sg27
Fnan
sg28
g29
sg30
F-122.797964
sbsg31
(lp4127
sbag1
(g2
g3
Ntp4128
Rp4129
(dp4130
g7
g1
(g8
g3
Ntp4131
Rp4132
(dp4133
g12
g13
sg14
F49.180761
sg15
F409.0
sg16
g187
sg18
I20120920
sg19
g59
sg21
Fnan
sg23
S'98 Avenue and 132 Street'
p4134
sg25
Fnan
sg26
I2
sg27
Fnan
sg28
g29
sg30
F-122.85667600000001
sbsg31
(lp4135
sbag1
(g2
g3
Ntp4136
Rp4137
(dp4138
g7
g1
(g8
g3
Ntp4139
Rp4140
(dp4141
g12
g13
sg14
F49.04562
sg15
F94.0
sg16
g17
sg18
I20120920
sg19
g20
sg21
g22
sg23
S'24 Avenue and 152 Street'
p4142
sg25
Fnan
sg26
I4
sg27
Fnan
sg28
g29
sg30
F-122.80119599999999
sbsg31
(lp4143
g1
(g33
g3
Ntp4144
Rp4145
(dp4146
g14
F49.04550048
sg37
S'http://cosmos.surrey.ca/TrafficCameraImages/enc_24_152_cam1.jpg'
p4147
sg27
Fnan
sg23
S'24 Ave And 152 St'
p4148
sg30
F-122.8013078
sbag1
(g33
g3
Ntp4149
Rp4150
(dp4151
g14
F49.04524743
sg37
S'http://cosmos.surrey.ca/TrafficCameraImages/enc_24_152_cam2.jpg'
p4152
sg27
Fnan
sg23
g4148
sg30
F-122.80133909999998
sbasbag1
(g2
g3
Ntp4153
Rp4154
(dp4155
g7
g1
(g8
g3
Ntp4156
Rp4157
(dp4158
g12
g13
sg14
F49.166367
sg15
F331.0
sg16
g402
sg18
I20120920
sg19
g59
sg21
Fnan
sg23
Fnan
sg25
Fnan
sg26
I1
sg27
Fnan
sg28
g29
sg30
F-122.80139299999999
sbsg31
(lp4159
sbag1
(g2
g3
Ntp4160
Rp4161
(dp4162
g7
g1
(g8
g3
Ntp4163
Rp4164
(dp4165
g12
g13
sg14
F49.11291
sg15
Fnan
sg16
g17
sg18
I20120920
sg19
Fnan
sg21
g22
sg23
S'120 Street and Boundary Park Gate'
p4166
sg25
Fnan
sg26
I4
sg27
Fnan
sg28
g29
sg30
F-122.89043799999999
sbsg31
(lp4167
g1
(g33
g3
Ntp4168
Rp4169
(dp4170
g14
F49.11291035
sg37
S'http://cosmos.surrey.ca/TrafficCameraImages/enc_boundarypark_120_cam1.jpg'
p4171
sg27
Fnan
sg23
S'Boundary Park Gate And 120 St'
p4172
sg30
F-122.89043819999999
sbasbag1
(g2
g3
Ntp4173
Rp4174
(dp4175
g7
g1
(g8
g3
Ntp4176
Rp4177
(dp4178
g12
g13
sg14
F49.187835
sg15
F231.0
sg16
g17
sg18
I20120920
sg19
g20
sg21
g22
sg23
S'King George Blvd and 102 Avenue'
p4179
sg25
Fnan
sg26
I4
sg27
Fnan
sg28
g29
sg30
F-122.845404
sbsg31
(lp4180
g1
(g33
g3
Ntp4181
Rp4182
(dp4183
g14
F49.18774064
sg37
S'http://cosmos.surrey.ca/TrafficCameraImages/enc_102_kgbv_cam1.jpg'
p4184
sg27
Fnan
sg23
S'102 Ave And King George Blvd'
p4185
sg30
F-122.845177
sbasbag1
(g2
g3
Ntp4186
Rp4187
(dp4188
g7
g1
(g8
g3
Ntp4189
Rp4190
(dp4191
g12
g13
sg14
F49.122853000000006
sg15
F97.0
sg16
g17
sg18
I20120920
sg19
g20
sg21
g22
sg23
S'66 Avenue and 128 Street'
p4192
sg25
Fnan
sg26
I4
sg27
Fnan
sg28
g29
sg30
F-122.867814
sbsg31
(lp4193
g1
(g33
g3
Ntp4194
Rp4195
(dp4196
g14
F49.12285314
sg37
S'http://cosmos.surrey.ca/TrafficCameraImages/enc_66_128_cam1.jpg'
p4197
sg27
Fnan
sg23
S'66 Ave And 128 St'
p4198
sg30
F-122.86781450000001
sbasbag1
(g2
g3
Ntp4199
Rp4200
(dp4201
g7
g1
(g8
g3
Ntp4202
Rp4203
(dp4204
g12
g13
sg14
F49.162683
sg15
F109.0
sg16
g17
sg18
I20120920
sg19
g59
sg21
g22
sg23
S'88 Avenue and 133A Street'
p4205
sg25
Fnan
sg26
I4
sg27
Fnan
sg28
g29
sg30
F-122.852827
sbsg31
(lp4206
sbag1
(g2
g3
Ntp4207
Rp4208
(dp4209
g7
g1
(g8
g3
Ntp4210
Rp4211
(dp4212
g12
g13
sg14
F49.133713
sg15
F57.0
sg16
g17
sg18
I20120920
sg19
g20
sg21
g22
sg23
S'72 Avenue and 132 Street'
p4213
sg25
Fnan
sg26
I4
sg27
Fnan
sg28
g29
sg30
F-122.85671
sbsg31
(lp4214
g1
(g33
g3
Ntp4215
Rp4216
(dp4217
g14
F49.13361144
sg37
S'http://cosmos.surrey.ca/TrafficCameraImages/enc_72_132_cam1.jpg'
p4218
sg27
Fnan
sg23
S'72 Ave And 132 St'
p4219
sg30
F-122.8564777
sbasbag1
(g2
g3
Ntp4220
Rp4221
(dp4222
g7
g1
(g8
g3
Ntp4223
Rp4224
(dp4225
g12
g13
sg14
F49.142798
sg15
F181.0
sg16
g17
sg18
I20120920
sg19
g20
sg21
Fnan
sg23
S'77 Avenue and 132 Street'
p4226
sg25
Fnan
sg26
I4
sg27
Fnan
sg28
g29
sg30
F-122.856775
sbsg31
(lp4227
g1
(g33
g3
Ntp4228
Rp4229
(dp4230
g14
F49.14279055
sg37
S'http://cosmos.surrey.ca/TrafficCameraImages/enc_77_132_cam1.jpg'
p4231
sg27
Fnan
sg23
S'77 Ave And 132 St'
p4232
sg30
F-122.8567749
sbasbag1
(g2
g3
Ntp4233
Rp4234
(dp4235
g7
g1
(g8
g3
Ntp4236
Rp4237
(dp4238
g12
g13
sg14
F49.126403
sg15
F284.0
sg16
g17
sg18
I20120920
sg19
g20
sg21
g22
sg23
S'68 Avenue and 132 Street'
p4239
sg25
Fnan
sg26
I4
sg27
Fnan
sg28
g29
sg30
F-122.856618
sbsg31
(lp4240
g1
(g33
g3
Ntp4241
Rp4242
(dp4243
g14
F49.12640342
sg37
S'http://cosmos.surrey.ca/TrafficCameraImages/enc_68_132_cam1.jpg'
p4244
sg27
Fnan
sg23
S'68 Ave And 132 St'
p4245
sg30
F-122.8566183
sbasbag1
(g2
g3
Ntp4246
Rp4247
(dp4248
g7
g1
(g8
g3
Ntp4249
Rp4250
(dp4251
g12
g13
sg14
F49.189306
sg15
F268.0
sg16
g17
sg18
I20120920
sg19
g59
sg21
g22
sg23
S'103 Avenue and 160 Street'
p4252
sg25
Fnan
sg26
I4
sg27
Fnan
sg28
g29
sg30
F-122.77857
sbsg31
(lp4253
g1
(g33
g3
Ntp4254
Rp4255
(dp4256
g14
F49.18944588
sg37
S'http://cosmos.surrey.ca/TrafficCameraImages/enc_103_160_cam1.jpg'
p4257
sg27
Fnan
sg23
S'103 Ave And 160 St'
p4258
sg30
F-122.77873459999999
sbasbag1
(g2
g3
Ntp4259
Rp4260
(dp4261
g7
g1
(g8
g3
Ntp4262
Rp4263
(dp4264
g12
g13
sg14
F49.139418
sg15
F153.0
sg16
g17
sg18
I20120920
sg19
g59
sg21
g22
sg23
S'75 Avenue and 121A Street'
p4265
sg25
Fnan
sg26
I4
sg27
Fnan
sg28
g29
sg30
F-122.88571999999999
sbsg31
(lp4266
sbag1
(g2
g3
Ntp4267
Rp4268
(dp4269
g7
g1
(g8
g3
Ntp4270
Rp4271
(dp4272
g12
g13
sg14
F49.163070000000005
sg15
F237.0
sg16
g17
sg18
I20120920
sg19
g20
sg21
g22
sg23
S'Fraser Highway and 88 Avenue'
p4273
sg25
Fnan
sg26
I4
sg27
Fnan
sg28
g29
sg30
F-122.79364699999999
sbsg31
(lp4274
g1
(g33
g3
Ntp4275
Rp4276
(dp4277
g14
F49.16305829
sg37
S'http://cosmos.surrey.ca/TrafficCameraImages/enc_88_fraser_cam1.jpg'
p4278
sg27
Fnan
sg23
S'88 Ave And Fraser Hwy'
p4279
sg30
F-122.79406570000002
sbasbag1
(g2
g3
Ntp4280
Rp4281
(dp4282
g7
g1
(g8
g3
Ntp4283
Rp4284
(dp4285
g12
g13
sg14
F49.161755
sg15
F328.0
sg16
g17
sg18
I20120920
sg19
g20
sg21
g22
sg23
S'Fraser Highway and 156 Street'
p4286
sg25
Fnan
sg26
I4
sg27
Fnan
sg28
g29
sg30
F-122.79017900000001
sbsg31
(lp4287
g1
(g33
g3
Ntp4288
Rp4289
(dp4290
g14
F49.16175523
sg37
S'http://cosmos.surrey.ca/TrafficCameraImages/enc_fraser_156_cam1.jpg'
p4291
sg27
Fnan
sg23
S'Fraser Hwy And 156 St'
p4292
sg30
F-122.79017879999999
sbasbag1
(g2
g3
Ntp4293
Rp4294
(dp4295
g7
g1
(g8
g3
Ntp4296
Rp4297
(dp4298
g12
g13
sg14
F49.126585999999996
sg15
F90.0
sg16
g17
sg18
I20120920
sg19
g20
sg21
g22
sg23
S'68 Avenue and 128 Street'
p4299
sg25
Fnan
sg26
I4
sg27
Fnan
sg28
g29
sg30
F-122.86778600000001
sbsg31
(lp4300
sbag1
(g2
g3
Ntp4301
Rp4302
(dp4303
g7
g1
(g8
g3
Ntp4304
Rp4305
(dp4306
g12
g13
sg14
F49.137274
sg15
F242.0
sg16
g17
sg18
I20120920
sg19
g59
sg21
g22
sg23
S'74 Avenue and 140 Street'
p4307
sg25
Fnan
sg26
I4
sg27
Fnan
sg28
g29
sg30
F-122.83448100000001
sbsg31
(lp4308
g1
(g33
g3
Ntp4309
Rp4310
(dp4311
g14
F49.13727403
sg37
S'http://cosmos.surrey.ca/TrafficCameraImages/enc_74_140_cam1.jpg'
p4312
sg27
Fnan
sg23
S'74 Ave And 140 St'
p4313
sg30
F-122.8344807
sbasbag1
(g2
g3
Ntp4314
Rp4315
(dp4316
g7
g1
(g8
g3
Ntp4317
Rp4318
(dp4319
g12
g13
sg14
F49.18435
sg15
F85.0
sg16
g17
sg18
I20120920
sg19
g59
sg21
Fnan
sg23
S'100 Avenue and 160 Street'
p4320
sg25
Fnan
sg26
I4
sg27
Fnan
sg28
g29
sg30
F-122.778599
sbsg31
(lp4321
g1
(g33
g3
Ntp4322
Rp4323
(dp4324
g14
F49.18435037
sg37
S'http://cosmos.surrey.ca/TrafficCameraImages/enc_100_160_cam1.jpg'
p4325
sg27
Fnan
sg23
S'100 Ave And 160 St'
p4326
sg30
F-122.77859950000001
sbasbag1
(g2
g3
Ntp4327
Rp4328
(dp4329
g7
g1
(g8
g3
Ntp4330
Rp4331
(dp4332
g12
g13
sg14
F49.111334
sg15
F105.0
sg16
g17
sg18
I20120920
sg19
g59
sg21
g22
sg23
S'60 Avenue and 188 Street'
p4333
sg25
Fnan
sg26
I4
sg27
Fnan
sg28
g29
sg30
F-122.701682
sbsg31
(lp4334
g1
(g33
g3
Ntp4335
Rp4336
(dp4337
g14
F49.11133382
sg37
S'http://cosmos.surrey.ca/TrafficCameraImages/enc_60_188_cam1.jpg'
p4338
sg27
Fnan
sg23
S'60 Ave And 188 St'
p4339
sg30
F-122.70168229999999
sbasbag1
(g2
g3
Ntp4340
Rp4341
(dp4342
g7
g1
(g8
g3
Ntp4343
Rp4344
(dp4345
g12
g13
sg14
F49.184403
sg15
F20.0
sg16
g17
sg18
I20120920
sg19
g20
sg21
g22
sg23
S'100 Avenue and 132 Street'
p4346
sg25
Fnan
sg26
I4
sg27
Fnan
sg28
g29
sg30
F-122.856522
sbsg31
(lp4347
g1
(g33
g3
Ntp4348
Rp4349
(dp4350
g14
F49.18440272
sg37
S'http://cosmos.surrey.ca/TrafficCameraImages/enc_100_132_cam1.jpg'
p4351
sg27
Fnan
sg23
S'100 Ave And 132 St'
p4352
sg30
F-122.85652160000001
sbasbag1
(g2
g3
Ntp4353
Rp4354
(dp4355
g7
g1
(g8
g3
Ntp4356
Rp4357
(dp4358
g12
g13
sg14
F49.104081
sg15
F245.0
sg16
g17
sg18
I20110321
sg19
g59
sg21
Fnan
sg23
S'Hwy 10 @ Hwy 15'
p4359
sg25
F2009.0
sg26
I4
sg27
Fnan
sg28
g29
sg30
F-122.73829599999999
sbsg31
(lp4360
g1
(g33
g3
Ntp4361
Rp4362
(dp4363
g14
F49.1039904
sg37
S'http://images.drivebc.ca/bchighwaycam/pub/cameras/83.jpg'
p4364
sg27
Fnan
sg23
S'176 St And 56 Ave'
p4365
sg30
F-122.738298
sbag1
(g33
g3
Ntp4366
Rp4367
(dp4368
g14
F49.10408167
sg37
S'http://images.drivebc.ca/bchighwaycam/pub/cameras/84.jpg'
p4369
sg27
Fnan
sg23
g4365
sg30
F-122.73846499999999
sbag1
(g33
g3
Ntp4370
Rp4371
(dp4372
g14
F49.10416014
sg37
S'http://images.drivebc.ca/bchighwaycam/pub/cameras/85.jpg'
p4373
sg27
Fnan
sg23
g4365
sg30
F-122.73829440000002
sbasbag1
(g2
g3
Ntp4374
Rp4375
(dp4376
g7
g1
(g8
g3
Ntp4377
Rp4378
(dp4379
g12
g13
sg14
F49.060311
sg15
F169.0
sg16
g17
sg18
I20111005
sg19
g59
sg21
g22
sg23
S'32 Avenue and 168 Street'
p4380
sg25
F2009.0
sg26
I4
sg27
Fnan
sg28
g29
sg30
F-122.75686
sbsg31
(lp4381
g1
(g33
g3
Ntp4382
Rp4383
(dp4384
g14
F49.06042526
sg37
S'http://cosmos.surrey.ca/TrafficCameraImages/enc_32_168_cam1.jpg'
p4385
sg27
Fnan
sg23
S'32 Ave And 168 St'
p4386
sg30
F-122.7567136
sbasbag1
(g2
g3
Ntp4387
Rp4388
(dp4389
g7
g1
(g8
g3
Ntp4390
Rp4391
(dp4392
g12
g13
sg14
F49.049177
sg15
F156.0
sg16
g17
sg18
I20111107
sg19
g59
sg21
Fnan
sg23
S'26 Avenue and 160 Street'
p4393
sg25
F2011.0
sg26
I4
sg27
Fnan
sg28
g29
sg30
F-122.7792
sbsg31
(lp4394
sbag1
(g2
g3
Ntp4395
Rp4396
(dp4397
g7
g1
(g8
g3
Ntp4398
Rp4399
(dp4400
g12
g13
sg14
F49.045583
sg15
F309.0
sg16
g17
sg18
I20091109
sg19
g59
sg21
g22
sg23
S'24 Avenue and 156 Street'
p4401
sg25
F2009.0
sg26
I4
sg27
Fnan
sg28
g29
sg30
F-122.790201
sbsg31
(lp4402
g1
(g33
g3
Ntp4403
Rp4404
(dp4405
g14
F49.04558333
sg37
S'http://cosmos.surrey.ca/TrafficCameraImages/enc_24_156_cam1.jpg'
p4406
sg27
Fnan
sg23
S'24 Ave And 156 St'
p4407
sg30
F-122.7902013
sbasbag1
(g2
g3
Ntp4408
Rp4409
(dp4410
g7
g1
(g8
g3
Ntp4411
Rp4412
(dp4413
g12
g13
sg14
F49.118899
sg15
F103.0
sg16
g17
sg18
I20091116
sg19
g20
sg21
g22
sg23
S'64 Avenue and 168 Street'
p4414
sg25
F2009.0
sg26
I4
sg27
Fnan
sg28
g29
sg30
F-122.756556
sbsg31
(lp4415
g1
(g33
g3
Ntp4416
Rp4417
(dp4418
g14
F49.11875936
sg37
S'http://cosmos.surrey.ca/TrafficCameraImages/enc_64_168_cam1.jpg'
p4419
sg27
Fnan
sg23
S'64 Ave And 168 St'
p4420
sg30
F-122.7563587
sbasbag1
(g2
g3
Ntp4421
Rp4422
(dp4423
g7
g1
(g8
g3
Ntp4424
Rp4425
(dp4426
g12
g13
sg14
F49.111544
sg15
F227.0
sg16
g17
sg18
I20091116
sg19
g59
sg21
g22
sg23
S'60 Avenue and 168 Street'
p4427
sg25
F2009.0
sg26
I4
sg27
Fnan
sg28
g29
sg30
F-122.756667
sbsg31
(lp4428
g1
(g33
g3
Ntp4429
Rp4430
(dp4431
g14
F49.11154426
sg37
S'http://cosmos.surrey.ca/TrafficCameraImages/enc_60_168_cam1.jpg'
p4432
sg27
Fnan
sg23
S'60 Ave And 168 St'
p4433
sg30
F-122.75662700000001
sbasbag1
(g2
g3
Ntp4434
Rp4435
(dp4436
g7
g1
(g8
g3
Ntp4437
Rp4438
(dp4439
g12
g13
sg14
F49.177146
sg15
F386.0
sg16
g17
sg18
I20111024
sg19
g59
sg21
g22
sg23
S'96 Avenue and Prince Charles Blvd'
p4440
sg25
F2011.0
sg26
I4
sg27
Fnan
sg28
g29
sg30
F-122.864102
sbsg31
(lp4441
g1
(g33
g3
Ntp4442
Rp4443
(dp4444
g14
F49.17714598
sg37
S'http://cosmos.surrey.ca/TrafficCameraImages/enc_96_pcharles_cam1.jpg'
p4445
sg27
Fnan
sg23
S'96 Ave And Prince Charles Blvd'
p4446
sg30
F-122.8641024
sbasbag1
(g2
g3
Ntp4447
Rp4448
(dp4449
g7
g1
(g8
g3
Ntp4450
Rp4451
(dp4452
g12
g13
sg14
F49.163047
sg15
F31.0
sg16
g17
sg18
I20111109
sg19
g20
sg21
g22
sg23
S'88 Avenue and Mall Access'
p4453
sg25
F2007.0
sg26
I4
sg27
Fnan
sg28
g29
sg30
F-122.87621100000001
sbsg31
(lp4454
g1
(g33
g3
Ntp4455
Rp4456
(dp4457
g14
F49.16304791
sg37
S'http://cosmos.surrey.ca/TrafficCameraImages/enc_88_walmart_cam1.jpg'
p4458
sg27
Fnan
sg23
S'88 Ave And WalMart Access'
p4459
sg30
F-122.87621940000001
sbasbag1
(g2
g3
Ntp4460
Rp4461
(dp4462
g7
g1
(g8
g3
Ntp4463
Rp4464
(dp4465
g12
g13
sg14
F49.163216
sg15
F150.0
sg16
g17
sg18
I20120920
sg19
g20
sg21
g22
sg23
S'88 Avenue and 124 Street'
p4466
sg25
Fnan
sg26
I4
sg27
Fnan
sg28
g29
sg30
F-122.87906100000001
sbsg31
(lp4467
g1
(g33
g3
Ntp4468
Rp4469
(dp4470
g14
F49.1632156
sg37
S'http://cosmos.surrey.ca/TrafficCameraImages/enc_88_124_cam1.jpg'
p4471
sg27
Fnan
sg23
S'88 Ave And 124 St'
p4472
sg30
F-122.87906070000001
sbasbag1
(g2
g3
Ntp4473
Rp4474
(dp4475
g7
g1
(g8
g3
Ntp4476
Rp4477
(dp4478
g12
g13
sg14
F49.11893
sg15
F403.0
sg16
g17
sg18
I20120920
sg19
g59
sg21
g22
sg23
S'64 Avenue and 166 Street'
p4479
sg25
Fnan
sg26
I4
sg27
Fnan
sg28
g29
sg30
F-122.762405
sbsg31
(lp4480
g1
(g33
g3
Ntp4481
Rp4482
(dp4483
g14
F49.11893037
sg37
S'http://cosmos.surrey.ca/TrafficCameraImages/enc_64_166_cam1.jpg'
p4484
sg27
Fnan
sg23
S'64 Ave And 166 St'
p4485
sg30
F-122.76240459999998
sbasbag1
(g2
g3
Ntp4486
Rp4487
(dp4488
g7
g1
(g8
g3
Ntp4489
Rp4490
(dp4491
g12
g13
sg14
F49.131203
sg15
F427.0
sg16
g187
sg18
I20120920
sg19
g59
sg21
Fnan
sg23
S'70B Avenue and 132 Street'
p4492
sg25
Fnan
sg26
I2
sg27
Fnan
sg28
g29
sg30
F-122.856678
sbsg31
(lp4493
sbag1
(g2
g3
Ntp4494
Rp4495
(dp4496
g7
g1
(g8
g3
Ntp4497
Rp4498
(dp4499
g12
g13
sg14
F49.177096999999996
sg15
F239.0
sg16
g17
sg18
I20120920
sg19
g20
sg21
g22
sg23
S'96 Avenue and 132 Street'
p4500
sg25
Fnan
sg26
I4
sg27
Fnan
sg28
g29
sg30
F-122.856851
sbsg31
(lp4501
g1
(g33
g3
Ntp4502
Rp4503
(dp4504
g14
F49.17721706
sg37
S'http://cosmos.surrey.ca/TrafficCameraImages/enc_96_132_cam1.jpg'
p4505
sg27
Fnan
sg23
S'96 Ave And 132 St'
p4506
sg30
F-122.8570303
sbasbag1
(g2
g3
Ntp4507
Rp4508
(dp4509
g7
g1
(g8
g3
Ntp4510
Rp4511
(dp4512
g12
g13
sg14
F49.16283
sg15
F411.0
sg16
g187
sg18
I20151005
sg19
g59
sg21
Fnan
sg23
S'88 Avenue and 142A Street'
p4513
sg25
Fnan
sg26
I2
sg27
Fnan
sg28
g29
sg30
F-122.827702
sbsg31
(lp4514
sbag1
(g2
g3
Ntp4515
Rp4516
(dp4517
g7
g1
(g8
g3
Ntp4518
Rp4519
(dp4520
g12
g13
sg14
F49.153017
sg15
F78.0
sg16
g17
sg18
I20120920
sg19
g20
sg21
g22
sg23
S'Fraser Highway and 164 Street'
p4521
sg25
Fnan
sg26
I4
sg27
Fnan
sg28
g29
sg30
F-122.767747
sbsg31
(lp4522
sbag1
(g2
g3
Ntp4523
Rp4524
(dp4525
g7
g1
(g8
g3
Ntp4526
Rp4527
(dp4528
g12
g13
sg14
F49.155988
sg15
F138.0
sg16
g17
sg18
I20120920
sg19
g20
sg21
g22
sg23
S'84 Avenue and 120 Street'
p4529
sg25
Fnan
sg26
I4
sg27
Fnan
sg28
g29
sg30
F-122.890373
sbsg31
(lp4530
g1
(g33
g3
Ntp4531
Rp4532
(dp4533
g14
F49.15598837
sg37
S'http://cosmos.surrey.ca/TrafficCameraImages/enc_84_120_cam1.jpg'
p4534
sg27
Fnan
sg23
S'84 Ave And 120 St'
p4535
sg30
F-122.8903726
sbasbag1
(g2
g3
Ntp4536
Rp4537
(dp4538
g7
g1
(g8
g3
Ntp4539
Rp4540
(dp4541
g12
g13
sg14
F49.116124
sg15
F356.0
sg16
g187
sg18
I20120920
sg19
g20
sg21
Fnan
sg23
S'Fraser Highway and 194 Street'
p4542
sg25
Fnan
sg26
I2
sg27
Fnan
sg28
g29
sg30
F-122.68478300000001
sbsg31
(lp4543
sbag1
(g2
g3
Ntp4544
Rp4545
(dp4546
g7
g1
(g8
g3
Ntp4547
Rp4548
(dp4549
g12
g13
sg14
F49.186125
sg15
F115.0
sg16
g17
sg18
I20120920
sg19
g59
sg21
Fnan
sg23
S'101 Avenue and 150 Street'
p4550
sg25
Fnan
sg26
I4
sg27
Fnan
sg28
g29
sg30
F-122.806471
sbsg31
(lp4551
sbag1
(g2
g3
Ntp4552
Rp4553
(dp4554
g7
g1
(g8
g3
Ntp4555
Rp4556
(dp4557
g12
g13
sg14
F49.133947
sg15
F299.0
sg16
g17
sg18
I20120920
sg19
g20
sg21
g22
sg23
S'72 Avenue and 124 Street'
p4558
sg25
Fnan
sg26
I4
sg27
Fnan
sg28
g29
sg30
F-122.879103
sbsg31
(lp4559
g1
(g33
g3
Ntp4560
Rp4561
(dp4562
g14
F49.13401741
sg37
S'http://cosmos.surrey.ca/TrafficCameraImages/enc_72_124_cam1.jpg'
p4563
sg27
Fnan
sg23
S'72 Ave And 124 St'
p4564
sg30
F-122.87924879999998
sbasbag1
(g2
g3
Ntp4565
Rp4566
(dp4567
g7
g1
(g8
g3
Ntp4568
Rp4569
(dp4570
g12
g13
sg14
F49.129115000000006
sg15
Fnan
sg16
g380
sg18
I20140909
sg19
Fnan
sg21
Fnan
sg23
S'69A Ave  124 St'
p4571
sg25
F2014.0
sg26
I3
sg27
Fnan
sg28
g29
sg30
F-122.879025
sbsg31
(lp4572
sbag1
(g2
g3
Ntp4573
Rp4574
(dp4575
g7
g1
(g8
g3
Ntp4576
Rp4577
(dp4578
g12
g13
sg14
F49.045642
sg15
Fnan
sg16
g380
sg18
I20140909
sg19
Fnan
sg21
Fnan
sg23
Fnan
sg25
Fnan
sg26
I3
sg27
Fnan
sg28
g29
sg30
F-122.80673
sbsg31
(lp4579
sbag1
(g2
g3
Ntp4580
Rp4581
(dp4582
g7
g1
(g8
g3
Ntp4583
Rp4584
(dp4585
g12
g13
sg14
F49.162782
sg15
F77.0
sg16
g17
sg18
I20120920
sg19
g20
sg21
g22
sg23
S'88 Avenue and 140 Street'
p4586
sg25
Fnan
sg26
I4
sg27
Fnan
sg28
g29
sg30
F-122.834643
sbsg31
(lp4587
g1
(g33
g3
Ntp4588
Rp4589
(dp4590
g14
F49.16269168
sg37
S'http://cosmos.surrey.ca/TrafficCameraImages/enc_88_140_cam1.jpg'
p4591
sg27
Fnan
sg23
S'88 Ave And 140 St'
p4592
sg30
F-122.83445890000002
sbasbag1
(g2
g3
Ntp4593
Rp4594
(dp4595
g7
g1
(g8
g3
Ntp4596
Rp4597
(dp4598
g12
g13
sg14
F49.186128000000004
sg15
F281.0
sg16
g17
sg18
I20120920
sg19
g20
sg21
Fnan
sg23
S'101 Avenue and 152 Street'
p4599
sg25
Fnan
sg26
I4
sg27
Fnan
sg28
g29
sg30
F-122.80090600000001
sbsg31
(lp4600
g1
(g33
g3
Ntp4601
Rp4602
(dp4603
g14
F49.18612768
sg37
S'http://cosmos.surrey.ca/TrafficCameraImages/enc_101_152_cam1.jpg'
p4604
sg27
Fnan
sg23
S'101 Ave And 152 St'
p4605
sg30
F-122.80090619999999
sbasbag1
(g2
g3
Ntp4606
Rp4607
(dp4608
g7
g1
(g8
g3
Ntp4609
Rp4610
(dp4611
g12
g13
sg14
F49.148539
sg15
F21.0
sg16
g17
sg18
I20120920
sg19
g20
sg21
g22
sg23
S'80 Avenue and 120A Street'
p4612
sg25
Fnan
sg26
I4
sg27
Fnan
sg28
g29
sg30
F-122.88809499999999
sbsg31
(lp4613
sbag1
(g2
g3
Ntp4614
Rp4615
(dp4616
g7
g1
(g8
g3
Ntp4617
Rp4618
(dp4619
g12
g13
sg14
F49.131105
sg15
Fnan
sg16
g380
sg18
I20140909
sg19
Fnan
sg21
Fnan
sg23
S'70A Ave  124 St'
p4620
sg25
F2014.0
sg26
I3
sg27
Fnan
sg28
g29
sg30
F-122.879057
sbsg31
(lp4621
sbag1
(g2
g3
Ntp4622
Rp4623
(dp4624
g7
g1
(g8
g3
Ntp4625
Rp4626
(dp4627
g12
g13
sg14
F49.187699
sg15
F132.0
sg16
g17
sg18
I20120920
sg19
g20
sg21
g22
sg23
S'Old Yale Road and 132 Street'
p4628
sg25
Fnan
sg26
I4
sg27
Fnan
sg28
g29
sg30
F-122.856485
sbsg31
(lp4629
g1
(g33
g3
Ntp4630
Rp4631
(dp4632
g14
F49.18769967
sg37
S'http://cosmos.surrey.ca/TrafficCameraImages/enc_oldyale_132_cam1.jpg'
p4633
sg27
Fnan
sg23
S'Old Yale Rd And 132 St'
p4634
sg30
F-122.8564855
sbasbag1
(g2
g3
Ntp4635
Rp4636
(dp4637
g7
g1
(g8
g3
Ntp4638
Rp4639
(dp4640
g12
g13
sg14
F49.064842
sg15
F308.0
sg16
g17
sg18
I20120920
sg19
g20
sg21
g22
sg23
S'King George Blvd and 34 Avenue'
p4641
sg25
Fnan
sg26
I4
sg27
Fnan
sg28
g29
sg30
F-122.817411
sbsg31
(lp4642
g1
(g33
g3
Ntp4643
Rp4644
(dp4645
g14
F49.06484151
sg37
S'http://cosmos.surrey.ca/TrafficCameraImages/enc_34_kgbv_cam1.jpg'
p4646
sg27
Fnan
sg23
S'34 Ave And King George Blvd'
p4647
sg30
F-122.81741129999999
sbasbag1
(g2
g3
Ntp4648
Rp4649
(dp4650
g7
g1
(g8
g3
Ntp4651
Rp4652
(dp4653
g12
g13
sg14
F49.191503000000004
sg15
F73.0
sg16
g17
sg18
I20120920
sg19
g59
sg21
g22
sg23
S'104 Avenue and 142 Street'
p4654
sg25
Fnan
sg26
I4
sg27
Fnan
sg28
g29
sg30
F-122.828612
sbsg31
(lp4655
g1
(g33
g3
Ntp4656
Rp4657
(dp4658
g14
F49.19150341
sg37
S'http://cosmos.surrey.ca/TrafficCameraImages/enc_104_142_cam1.jpg'
p4659
sg27
Fnan
sg23
S'104 Ave And 142 St'
p4660
sg30
F-122.8286122
sbasbag1
(g2
g3
Ntp4661
Rp4662
(dp4663
g7
g1
(g8
g3
Ntp4664
Rp4665
(dp4666
g12
g13
sg14
F49.031132
sg15
F33.0
sg16
g17
sg18
I20120920
sg19
g20
sg21
g22
sg23
S'16 Avenue and 152 Street'
p4667
sg25
Fnan
sg26
I4
sg27
Fnan
sg28
g29
sg30
F-122.801152
sbsg31
(lp4668
g1
(g33
g3
Ntp4669
Rp4670
(dp4671
g14
F49.03121377
sg37
S'http://cosmos.surrey.ca/TrafficCameraImages/enc_16_152_cam1.jpg'
p4672
sg27
Fnan
sg23
S'16 Ave And 152 St'
p4673
sg30
F-122.8013547
sbasbag1
(g2
g3
Ntp4674
Rp4675
(dp4676
g7
g1
(g8
g3
Ntp4677
Rp4678
(dp4679
g12
g13
sg14
F49.03106
sg15
F289.0
sg16
g17
sg18
I20120920
sg19
g20
sg21
g22
sg23
S'16 Avenue and 160 Street'
p4680
sg25
Fnan
sg26
I4
sg27
Fnan
sg28
g29
sg30
F-122.77919399999999
sbsg31
(lp4681
g1
(g33
g3
Ntp4682
Rp4683
(dp4684
g14
F49.03105989
sg37
S'http://cosmos.surrey.ca/TrafficCameraImages/enc_16_160_cam1.jpg'
p4685
sg27
Fnan
sg23
S'16 Ave And 160 St'
p4686
sg30
F-122.7791936
sbasbag1
(g2
g3
Ntp4687
Rp4688
(dp4689
g7
g1
(g8
g3
Ntp4690
Rp4691
(dp4692
g12
g13
sg14
F49.155413
sg15
F277.0
sg16
g17
sg18
I20120920
sg19
g20
sg21
g22
sg23
S'84 Avenue and 132 Street'
p4693
sg25
Fnan
sg26
I4
sg27
Fnan
sg28
g29
sg30
F-122.856862
sbsg31
(lp4694
g1
(g33
g3
Ntp4695
Rp4696
(dp4697
g14
F49.15541349
sg37
S'http://cosmos.surrey.ca/TrafficCameraImages/enc_84_132_cam1.jpg'
p4698
sg27
Fnan
sg23
S'84 Ave And 132 St'
p4699
sg30
F-122.8568621
sbasbag1
(g2
g3
Ntp4700
Rp4701
(dp4702
g7
g1
(g8
g3
Ntp4703
Rp4704
(dp4705
g12
g13
sg14
F49.111311
sg15
F228.0
sg16
g17
sg18
I20120920
sg19
g59
sg21
g22
sg23
S'60 Avenue and 192 Street'
p4706
sg25
Fnan
sg26
I4
sg27
Fnan
sg28
g29
sg30
F-122.69118999999999
sbsg31
(lp4707
g1
(g33
g3
Ntp4708
Rp4709
(dp4710
g14
F49.11131072
sg37
S'http://cosmos.surrey.ca/TrafficCameraImages/enc_60_192_cam1.jpg'
p4711
sg27
Fnan
sg23
S'60 Ave And 192 St'
p4712
sg30
F-122.6911896
sbasbag1
(g2
g3
Ntp4713
Rp4714
(dp4715
g7
g1
(g8
g3
Ntp4716
Rp4717
(dp4718
g12
g13
sg14
F49.191665
sg15
F91.0
sg16
g17
sg18
I20120920
sg19
g20
sg21
g22
sg23
S'104 Avenue and 132 Street'
p4719
sg25
Fnan
sg26
I4
sg27
Fnan
sg28
g29
sg30
F-122.85643700000001
sbsg31
(lp4720
g1
(g33
g3
Ntp4721
Rp4722
(dp4723
g14
F49.19175418
sg37
S'http://cosmos.surrey.ca/TrafficCameraImages/enc_104_132_cam1.jpg'
p4724
sg27
Fnan
sg23
S'104 Ave And 132 St'
p4725
sg30
F-122.85659779999999
sbasbag1
(g2
g3
Ntp4726
Rp4727
(dp4728
g7
g1
(g8
g3
Ntp4729
Rp4730
(dp4731
g12
g13
sg14
F49.148149
sg15
F79.0
sg16
g17
sg18
I20120920
sg19
g20
sg21
Fnan
sg23
S'King George Blvd and 80 Avenue'
p4732
sg25
Fnan
sg26
I4
sg27
Fnan
sg28
g29
sg30
F-122.845684
sbsg31
(lp4733
g1
(g33
g3
Ntp4734
Rp4735
(dp4736
g14
F49.14787176
sg37
S'http://cosmos.surrey.ca/TrafficCameraImages/enc_80_kgbv_cam1.jpg'
p4737
sg27
Fnan
sg23
S'80 Ave And King George Blvd'
p4738
sg30
F-122.84550559999998
sbasbag1
(g2
g3
Ntp4739
Rp4740
(dp4741
g7
g1
(g8
g3
Ntp4742
Rp4743
(dp4744
g12
g13
sg14
F49.038531
sg15
F157.0
sg16
g17
sg18
I20120920
sg19
g59
sg21
g22
sg23
S'20 Avenue and 128 Street'
p4745
sg25
Fnan
sg26
I4
sg27
Fnan
sg28
g29
sg30
F-122.86745
sbsg31
(lp4746
sbag1
(g2
g3
Ntp4747
Rp4748
(dp4749
g7
g1
(g8
g3
Ntp4750
Rp4751
(dp4752
g12
g13
sg14
F49.140840000000004
sg15
F283.0
sg16
g17
sg18
I20120920
sg19
g20
sg21
g22
sg23
S'King George Blvd and 76 Avenue'
p4753
sg25
Fnan
sg26
I4
sg27
Fnan
sg28
g29
sg30
F-122.84563200000001
sbsg31
(lp4754
g1
(g33
g3
Ntp4755
Rp4756
(dp4757
g14
F49.14050161
sg37
S'http://cosmos.surrey.ca/TrafficCameraImages/enc_76_kgbv_cam1.jpg'
p4758
sg27
Fnan
sg23
S'76 Ave And King George Blvd'
p4759
sg30
F-122.8454179
sbasbag1
(g2
g3
Ntp4760
Rp4761
(dp4762
g7
g1
(g8
g3
Ntp4763
Rp4764
(dp4765
g12
g13
sg14
F49.198853
sg15
F459.0
sg16
g187
sg18
I20120920
sg19
g59
sg21
Fnan
sg23
S'108 Avenue and 139 Street'
p4766
sg25
Fnan
sg26
I2
sg27
Fnan
sg28
g29
sg30
F-122.836932
sbsg31
(lp4767
g1
(g33
g3
Ntp4768
Rp4769
(dp4770
g14
F49.19885295
sg37
S'http://cosmos.surrey.ca/TrafficCameraImages/enc_108_139_cam1.jpg'
p4771
sg27
Fnan
sg23
S'108 Ave And 139 St'
p4772
sg30
F-122.83693240000001
sbasbag1
(g2
g3
Ntp4773
Rp4774
(dp4775
g7
g1
(g8
g3
Ntp4776
Rp4777
(dp4778
g12
g13
sg14
F49.133921
sg15
F269.0
sg16
g17
sg18
I20120920
sg19
g20
sg21
g22
sg23
S'72 Avenue and 126 Street'
p4779
sg25
Fnan
sg26
I4
sg27
Fnan
sg28
g29
sg30
F-122.87346699999999
sbsg31
(lp4780
g1
(g33
g3
Ntp4781
Rp4782
(dp4783
g14
F49.13392108
sg37
S'http://cosmos.surrey.ca/TrafficCameraImages/enc_72_126_cam1.jpg'
p4784
sg27
Fnan
sg23
S'72 Ave And 126 St'
p4785
sg30
F-122.8734673
sbasbag1
(g2
g3
Ntp4786
Rp4787
(dp4788
g7
g1
(g8
g3
Ntp4789
Rp4790
(dp4791
g12
g13
sg14
F49.162566
sg15
F252.0
sg16
g17
sg18
I20111109
sg19
g20
sg21
g22
sg23
S'88 Avenue and 128 Street'
p4792
sg25
F2007.0
sg26
I4
sg27
Fnan
sg28
g29
sg30
F-122.868026
sbsg31
(lp4793
g1
(g33
g3
Ntp4794
Rp4795
(dp4796
g14
F49.16248788
sg37
S'http://cosmos.surrey.ca/TrafficCameraImages/enc_88_128_cam1.jpg'
p4797
sg27
Fnan
sg23
S'88 Ave And 128 St'
p4798
sg30
F-122.86782690000001
sbasbag1
(g2
g3
Ntp4799
Rp4800
(dp4801
g7
g1
(g8
g3
Ntp4802
Rp4803
(dp4804
g12
g13
sg14
F49.119102000000005
sg15
Fnan
sg16
g17
sg18
I20100119
sg19
Fnan
sg21
Fnan
sg23
S'64 Avenue and 194 Street'
p4805
sg25
Fnan
sg26
I4
sg27
Fnan
sg28
g29
sg30
F-122.685382
sbsg31
(lp4806
sbag1
(g2
g3
Ntp4807
Rp4808
(dp4809
g7
g1
(g8
g3
Ntp4810
Rp4811
(dp4812
g12
g13
sg14
F49.191526
sg15
F81.0
sg16
g17
sg18
I20120920
sg19
g20
sg21
g22
sg23
S'104 Avenue and 144 Street'
p4813
sg25
Fnan
sg26
I4
sg27
Fnan
sg28
g29
sg30
F-122.823101
sbsg31
(lp4814
g1
(g33
g3
Ntp4815
Rp4816
(dp4817
g14
F49.19161267
sg37
S'http://cosmos.surrey.ca/TrafficCameraImages/enc_104_144_cam1.jpg'
p4818
sg27
Fnan
sg23
S'104 Ave And 144 St'
p4819
sg30
F-122.8232402
sbasbag1
(g2
g3
Ntp4820
Rp4821
(dp4822
g7
g1
(g8
g3
Ntp4823
Rp4824
(dp4825
g12
g13
sg14
F49.031154
sg15
F318.0
sg16
g17
sg18
I20120920
sg19
g20
sg21
g22
sg23
S'16 Avenue and 148 Street'
p4826
sg25
Fnan
sg26
I4
sg27
Fnan
sg28
g29
sg30
F-122.81221599999999
sbsg31
(lp4827
g1
(g33
g3
Ntp4828
Rp4829
(dp4830
g14
F49.03108732
sg37
S'http://cosmos.surrey.ca/TrafficCameraImages/enc_16_148_cam1.jpg'
p4831
sg27
Fnan
sg23
S'16 Ave And 148 St'
p4832
sg30
F-122.81208970000002
sbasbag1
(g2
g3
Ntp4833
Rp4834
(dp4835
g7
g1
(g8
g3
Ntp4836
Rp4837
(dp4838
g12
g13
sg14
F49.031158000000005
sg15
F119.0
sg16
g17
sg18
I20120920
sg19
g20
sg21
g22
sg23
S'16 Avenue and Martin Drive'
p4839
sg25
Fnan
sg26
I4
sg27
Fnan
sg28
g29
sg30
F-122.80528799999999
sbsg31
(lp4840
g1
(g33
g3
Ntp4841
Rp4842
(dp4843
g14
F49.03113015
sg37
S'http://cosmos.surrey.ca/TrafficCameraImages/enc_16_martin_cam1.jpg'
p4844
sg27
Fnan
sg23
S'16 Ave And Martin Dr'
p4845
sg30
F-122.805301
sbasbag1
(g2
g3
Ntp4846
Rp4847
(dp4848
g7
g1
(g8
g3
Ntp4849
Rp4850
(dp4851
g12
g13
sg14
F49.119228
sg15
F221.0
sg16
g17
sg18
I20120920
sg19
g20
sg21
g22
sg23
S'64 Avenue and 124 Street'
p4852
sg25
Fnan
sg26
I4
sg27
Fnan
sg28
g29
sg30
F-122.87899099999998
sbsg31
(lp4853
g1
(g33
g3
Ntp4854
Rp4855
(dp4856
g14
F49.11914346
sg37
S'http://cosmos.surrey.ca/TrafficCameraImages/enc_64_124_cam1.jpg'
p4857
sg27
Fnan
sg23
S'64 Ave And 124 St'
p4858
sg30
F-122.8788326
sbasbag1
(g2
g3
Ntp4859
Rp4860
(dp4861
g7
g1
(g8
g3
Ntp4862
Rp4863
(dp4864
g12
g13
sg14
F49.111465
sg15
F178.0
sg16
g17
sg18
I20120920
sg19
g59
sg21
g22
sg23
S'60 Avenue and 177B Street'
p4865
sg25
Fnan
sg26
I4
sg27
Fnan
sg28
g29
sg30
F-122.73030200000001
sbsg31
(lp4866
sbag1
(g2
g3
Ntp4867
Rp4868
(dp4869
g7
g1
(g8
g3
Ntp4870
Rp4871
(dp4872
g12
g13
sg14
F49.190146999999996
sg15
Fnan
sg16
g17
sg18
I20150629
sg19
Fnan
sg21
Fnan
sg23
S'103 Avenue and University Drive'
p4873
sg25
F2013.0
sg26
I4
sg27
Fnan
sg28
g29
sg30
F-122.849846
sbsg31
(lp4874
g1
(g33
g3
Ntp4875
Rp4876
(dp4877
g14
F49.18977909
sg37
S'http://cosmos.surrey.ca/TrafficCameraImages/enc_universitydr_103egress_cam1.jpg'
p4878
sg27
Fnan
sg23
S'University Dr And 103 St'
p4879
sg30
F-122.8498553
sbag1
(g33
g3
Ntp4880
Rp4881
(dp4882
g14
F49.18977909
sg37
S'http://cosmos.surrey.ca/TrafficCameraImages/enc_universitydr_103_egress_cam2.jpg'
p4883
sg27
Fnan
sg23
g4879
sg30
F-122.8498553
sbasbag1
(g2
g3
Ntp4884
Rp4885
(dp4886
g7
g1
(g8
g3
Ntp4887
Rp4888
(dp4889
g12
g13
sg14
F49.155366
sg15
F197.0
sg16
g17
sg18
I20120920
sg19
g20
sg21
g22
sg23
S'84 Avenue and 128 Street'
p4890
sg25
Fnan
sg26
I4
sg27
Fnan
sg28
g29
sg30
F-122.867999
sbsg31
(lp4891
g1
(g33
g3
Ntp4892
Rp4893
(dp4894
g14
F49.1553662
sg37
S'http://cosmos.surrey.ca/TrafficCameraImages/enc_84_128_cam1.jpg'
p4895
sg27
Fnan
sg23
S'84 Ave And 128 St'
p4896
sg30
F-122.8679988
sbasbag1
(g2
g3
Ntp4897
Rp4898
(dp4899
g7
g1
(g8
g3
Ntp4900
Rp4901
(dp4902
g12
g13
sg14
F49.202867
sg15
F88.0
sg16
g17
sg18
I20120920
sg19
g20
sg21
g22
sg23
S'110 Avenue and 120 Street'
p4903
sg25
Fnan
sg26
I4
sg27
Fnan
sg28
g29
sg30
F-122.87833700000002
sbsg31
(lp4904
g1
(g33
g3
Ntp4905
Rp4906
(dp4907
g14
F49.20285249
sg37
S'http://cosmos.surrey.ca/TrafficCameraImages/enc_110_120_cam1.jpg'
p4908
sg27
Fnan
sg23
S'110 Ave And 120 St'
p4909
sg30
F-122.8786924
sbasbag1
(g2
g3
Ntp4910
Rp4911
(dp4912
g7
g1
(g8
g3
Ntp4913
Rp4914
(dp4915
g12
g13
sg14
F49.203998
sg15
F183.0
sg16
g17
sg18
I20120920
sg19
g20
sg21
Fnan
sg23
S'Grosvenor Road and Hansen Road'
p4916
sg25
Fnan
sg26
I4
sg27
Fnan
sg28
g29
sg30
F-122.83616200000002
sbsg31
(lp4917
sbag1
(g2
g3
Ntp4918
Rp4919
(dp4920
g7
g1
(g8
g3
Ntp4921
Rp4922
(dp4923
g12
g13
sg14
F49.162841
sg15
F412.0
sg16
g187
sg18
I20151005
sg19
g59
sg21
Fnan
sg23
S'88 Avenue and 146 Street'
p4924
sg25
Fnan
sg26
I2
sg27
Fnan
sg28
g29
sg30
F-122.817903
sbsg31
(lp4925
sbag1
(g2
g3
Ntp4926
Rp4927
(dp4928
g7
g1
(g8
g3
Ntp4929
Rp4930
(dp4931
g12
g13
sg14
F49.133534000000004
sg15
F127.0
sg16
g17
sg18
I20120920
sg19
g20
sg21
g22
sg23
S'King George Blvd and 72 Avenue'
p4932
sg25
Fnan
sg26
I4
sg27
Fnan
sg28
g29
sg30
F-122.845578
sbsg31
(lp4933
g1
(g33
g3
Ntp4934
Rp4935
(dp4936
g14
F49.13342881
sg37
S'http://cosmos.surrey.ca/TrafficCameraImages/enc_72_kgbv_cam1.jpg'
p4937
sg27
Fnan
sg23
S'72 Ave And King George Blvd'
p4938
sg30
F-122.84577730000001
sbag1
(g33
g3
Ntp4939
Rp4940
(dp4941
g14
F49.1332604
sg37
S'http://cosmos.surrey.ca/TrafficCameraImages/enc_72_kgbv_cam2.jpg'
p4942
sg27
Fnan
sg23
g4938
sg30
F-122.84539960000001
sbasbag1
(g2
g3
Ntp4943
Rp4944
(dp4945
g7
g1
(g8
g3
Ntp4946
Rp4947
(dp4948
g12
g13
sg14
F49.172984
sg15
F413.0
sg16
g187
sg18
I20120920
sg19
g59
sg21
Fnan
sg23
S'93A Avenue and 120 Street'
p4949
sg25
Fnan
sg26
I2
sg27
Fnan
sg28
g29
sg30
F-122.890215
sbsg31
(lp4950
sbag1
(g2
g3
Ntp4951
Rp4952
(dp4953
g7
g1
(g8
g3
Ntp4954
Rp4955
(dp4956
g12
g13
sg14
F49.119006
sg15
F390.0
sg16
g402
sg18
I20120920
sg19
g59
sg21
Fnan
sg23
Fnan
sg25
Fnan
sg26
I1
sg27
Fnan
sg28
g29
sg30
F-122.698898
sbsg31
(lp4957
sbag1
(g2
g3
Ntp4958
Rp4959
(dp4960
g7
g1
(g8
g3
Ntp4961
Rp4962
(dp4963
g12
g13
sg14
F49.184187
sg15
F349.0
sg16
g187
sg18
I20120920
sg19
g59
sg21
Fnan
sg23
S'100 Avenue and 151 Street'
p4964
sg25
Fnan
sg26
I2
sg27
Fnan
sg28
g29
sg30
F-122.803949
sbsg31
(lp4965
sbag1
(g2
g3
Ntp4966
Rp4967
(dp4968
g7
g1
(g8
g3
Ntp4969
Rp4970
(dp4971
g12
g13
sg14
F49.202665
sg15
F447.0
sg16
g17
sg18
I20120920
sg19
g20
sg21
Fnan
sg23
S'King George Blvd and University Dr'
p4972
sg25
Fnan
sg26
I4
sg27
Fnan
sg28
g29
sg30
F-122.85099199999999
sbsg31
(lp4973
sbag1
(g2
g3
Ntp4974
Rp4975
(dp4976
g7
g1
(g8
g3
Ntp4977
Rp4978
(dp4979
g12
g13
sg14
F49.032936
sg15
F75.0
sg16
g17
sg18
I20120920
sg19
g20
sg21
Fnan
sg23
S'17 Avenue and 152 Street'
p4980
sg25
Fnan
sg26
I4
sg27
Fnan
sg28
g29
sg30
F-122.80116399999999
sbsg31
(lp4981
g1
(g33
g3
Ntp4982
Rp4983
(dp4984
g14
F49.03294132
sg37
S'http://cosmos.surrey.ca/TrafficCameraImages/enc_17_152_cam1.jpg'
p4985
sg27
Fnan
sg23
S'17 Ave And 152 St'
p4986
sg30
F-122.8011817
sbasbag1
(g2
g3
Ntp4987
Rp4988
(dp4989
g7
g1
(g8
g3
Ntp4990
Rp4991
(dp4992
g12
g13
sg14
F49.184309000000006
sg15
F306.0
sg16
g17
sg18
I20120920
sg19
g20
sg21
Fnan
sg23
S'100 Avenue and Whalley Boulevard'
p4993
sg25
Fnan
sg26
I4
sg27
Fnan
sg28
g29
sg30
F-122.84323300000001
sbsg31
(lp4994
g1
(g33
g3
Ntp4995
Rp4996
(dp4997
g14
F49.18412534
sg37
S'http://cosmos.surrey.ca/TrafficCameraImages/enc_100_whalley_cam1.jpg'
p4998
sg27
Fnan
sg23
S'100 Ave And Whalley Blvd'
p4999
sg30
F-122.8434192
sbasbag1
(g2
g3
Ntp5000
Rp5001
(dp5002
g7
g1
(g8
g3
Ntp5003
Rp5004
(dp5005
g12
g13
sg14
F49.191495
sg15
F189.0
sg16
g17
sg18
I20120920
sg19
g20
sg21
g22
sg23
S'104 Avenue and 148 Street'
p5006
sg25
Fnan
sg26
I4
sg27
Fnan
sg28
g29
sg30
F-122.812451
sbsg31
(lp5007
g1
(g33
g3
Ntp5008
Rp5009
(dp5010
g14
F49.19158829
sg37
S'http://cosmos.surrey.ca/TrafficCameraImages/enc_104_148_cam1.jpg'
p5011
sg27
Fnan
sg23
S'104 Ave And 148 St'
p5012
sg30
F-122.8125888
sbasbag1
(g2
g3
Ntp5013
Rp5014
(dp5015
g7
g1
(g8
g3
Ntp5016
Rp5017
(dp5018
g12
g13
sg14
F49.036556
sg15
F371.0
sg16
g187
sg18
I20120920
sg19
g20
sg21
Fnan
sg23
S'19 Avenue and 152 Street'
p5019
sg25
Fnan
sg26
I2
sg27
Fnan
sg28
g29
sg30
F-122.80118600000002
sbsg31
(lp5020
sbag1
(g2
g3
Ntp5021
Rp5022
(dp5023
g7
g1
(g8
g3
Ntp5024
Rp5025
(dp5026
g12
g13
sg14
F49.164747999999996
sg15
F26.0
sg16
g17
sg18
I20120920
sg19
g20
sg21
g22
sg23
S'Fraser Highway and Fleetwood Way'
p5027
sg25
Fnan
sg26
I4
sg27
Fnan
sg28
g29
sg30
F-122.797932
sbsg31
(lp5028
g1
(g33
g3
Ntp5029
Rp5030
(dp5031
g14
F49.16474811
sg37
S'http://cosmos.surrey.ca/TrafficCameraImages/enc_fraser_fleetwood_cam1.jpg'
p5032
sg27
Fnan
sg23
S'Fraser Hwy And Fleetwood Dr'
p5033
sg30
F-122.797932
sbasbag1
(g2
g3
Ntp5034
Rp5035
(dp5036
g7
g1
(g8
g3
Ntp5037
Rp5038
(dp5039
g12
g13
sg14
F49.187721999999994
sg15
F190.0
sg16
g17
sg18
I20120920
sg19
g20
sg21
g22
sg23
S'102 Avenue and 140 Street'
p5040
sg25
Fnan
sg26
I4
sg27
Fnan
sg28
g29
sg30
F-122.834154
sbsg31
(lp5041
g1
(g33
g3
Ntp5042
Rp5043
(dp5044
g14
F49.18735619
sg37
S'http://cosmos.surrey.ca/TrafficCameraImages/enc_102_140_cam1.jpg'
p5045
sg27
Fnan
sg23
S'102 Ave And 140 St'
p5046
sg30
F-122.8341561
sbasbag1
(g2
g3
Ntp5047
Rp5048
(dp5049
g7
g1
(g8
g3
Ntp5050
Rp5051
(dp5052
g12
g13
sg14
F49.126463
sg15
F187.0
sg16
g17
sg18
I20120920
sg19
g59
sg21
g22
sg23
S'68 Avenue and 137A Street'
p5053
sg25
Fnan
sg26
I4
sg27
Fnan
sg28
g29
sg30
F-122.841489
sbsg31
(lp5054
sbag1
(g2
g3
Ntp5055
Rp5056
(dp5057
g7
g1
(g8
g3
Ntp5058
Rp5059
(dp5060
g12
g13
sg14
F49.148171999999995
sg15
F217.0
sg16
g17
sg18
I20120920
sg19
g20
sg21
g22
sg23
S'80 Avenue and 132 Street'
p5061
sg25
Fnan
sg26
I4
sg27
Fnan
sg28
g29
sg30
F-122.85681399999999
sbsg31
(lp5062
g1
(g33
g3
Ntp5063
Rp5064
(dp5065
g14
F49.14817248
sg37
S'http://cosmos.surrey.ca/TrafficCameraImages/enc_80_132_cam1.jpg'
p5066
sg27
Fnan
sg23
S'80 Ave And 132 St'
p5067
sg30
F-122.8568142
sbasbag1
(g2
g3
Ntp5068
Rp5069
(dp5070
g7
g1
(g8
g3
Ntp5071
Rp5072
(dp5073
g12
g13
sg14
F49.148157
sg15
F192.0
sg16
g17
sg18
I20120920
sg19
g20
sg21
g22
sg23
S'80 Avenue and 128 Street'
p5074
sg25
Fnan
sg26
I4
sg27
Fnan
sg28
g29
sg30
F-122.86797
sbsg31
(lp5075
g1
(g33
g3
Ntp5076
Rp5077
(dp5078
g14
F49.14803559
sg37
S'http://cosmos.surrey.ca/TrafficCameraImages/enc_80_128_cam1.jpg'
p5079
sg27
Fnan
sg23
S'80 Ave And 128 St'
p5080
sg30
F-122.86810459999998
sbasbag1
(g2
g3
Ntp5081
Rp5082
(dp5083
g7
g1
(g8
g3
Ntp5084
Rp5085
(dp5086
g12
g13
sg14
F49.118742
sg15
F323.0
sg16
g17
sg18
I20120920
sg19
g20
sg21
g22
sg23
S'64 Avenue and 184 Street'
p5087
sg25
Fnan
sg26
I4
sg27
Fnan
sg28
g29
sg30
F-122.71256699999999
sbsg31
(lp5088
g1
(g33
g3
Ntp5089
Rp5090
(dp5091
g14
F49.11874249
sg37
S'http://cosmos.surrey.ca/TrafficCameraImages/enc_64_184_cam1.jpg'
p5092
sg27
Fnan
sg23
S'64 Ave And 184 St'
p5093
sg30
F-122.71256670000001
sbasbag1
(g2
g3
Ntp5094
Rp5095
(dp5096
g7
g1
(g8
g3
Ntp5097
Rp5098
(dp5099
g12
g13
sg14
F49.123018
sg15
F410.0
sg16
g187
sg18
I20120920
sg19
g59
sg21
Fnan
sg23
S'66 Avenue and 120 Street'
p5100
sg25
Fnan
sg26
I2
sg27
Fnan
sg28
g29
sg30
F-122.89036999999999
sbsg31
(lp5101
g1
(g33
g3
Ntp5102
Rp5103
(dp5104
g14
F49.12294142
sg37
S'http://cosmos.surrey.ca/TrafficCameraImages/enc_66_120_cam1.jpg'
p5105
sg27
Fnan
sg23
S'66 Ave And 120 St'
p5106
sg30
F-122.89055819999999
sbasbag1
(g2
g3
Ntp5107
Rp5108
(dp5109
g7
g1
(g8
g3
Ntp5110
Rp5111
(dp5112
g12
g13
sg14
F49.198865999999995
sg15
F264.0
sg16
g17
sg18
I20120920
sg19
g20
sg21
g22
sg23
S'King George Blvd and 108 Avenue'
p5113
sg25
Fnan
sg26
I4
sg27
Fnan
sg28
g29
sg30
F-122.845952
sbsg31
(lp5114
sbag1
(g2
g3
Ntp5115
Rp5116
(dp5117
g7
g1
(g8
g3
Ntp5118
Rp5119
(dp5120
g12
g13
sg14
F49.067370000000004
sg15
F87.0
sg16
g17
sg18
I20120920
sg19
g20
sg21
g22
sg23
S'36 Avenue and 152 Street'
p5121
sg25
Fnan
sg26
I4
sg27
Fnan
sg28
g29
sg30
F-122.801181
sbsg31
(lp5122
g1
(g33
g3
Ntp5123
Rp5124
(dp5125
g14
F49.06736989
sg37
S'http://cosmos.surrey.ca/TrafficCameraImages/enc_36_152_cam1.jpg'
p5126
sg27
Fnan
sg23
S'36 Ave And 152 St'
p5127
sg30
F-122.8011811
sbasbag1
(g2
g3
Ntp5128
Rp5129
(dp5130
g7
g1
(g8
g3
Ntp5131
Rp5132
(dp5133
g12
g13
sg14
F49.16284
sg15
F423.0
sg16
g187
sg18
I20120920
sg19
g59
sg21
g22
sg23
S'88 Avenue and 153 Street'
p5134
sg25
Fnan
sg26
I2
sg27
Fnan
sg28
g29
sg30
F-122.79898700000001
sbsg31
(lp5135
sbag1
(g2
g3
Ntp5136
Rp5137
(dp5138
g7
g1
(g8
g3
Ntp5139
Rp5140
(dp5141
g12
g13
sg14
F49.182624
sg15
F64.0
sg16
g17
sg18
I20150908
sg19
g20
sg21
Fnan
sg23
S'99 Avenue and 120 Street'
p5142
sg25
Fnan
sg26
I4
sg27
Fnan
sg28
g29
sg30
F-122.890188
sbsg31
(lp5143
g1
(g33
g3
Ntp5144
Rp5145
(dp5146
g14
F49.18222312
sg37
S'http://cosmos.surrey.ca/TrafficCameraImages/enc_99_120_cam1.jpg'
p5147
sg27
Fnan
sg23
S'99 Ave And 120 St'
p5148
sg30
F-122.8900321
sbasbag1
(g2
g3
Ntp5149
Rp5150
(dp5151
g7
g1
(g8
g3
Ntp5152
Rp5153
(dp5154
g12
g13
sg14
F49.15032
sg15
F66.0
sg16
g17
sg18
I20150908
sg19
g20
sg21
g22
sg23
S'82 Avenue and 128 Street'
p5155
sg25
Fnan
sg26
I4
sg27
Fnan
sg28
g29
sg30
F-122.86798
sbsg31
(lp5156
g1
(g33
g3
Ntp5157
Rp5158
(dp5159
g14
F49.15001427
sg37
S'http://cosmos.surrey.ca/TrafficCameraImages/enc_82_128_cam1.jpg'
p5160
sg27
Fnan
sg23
S'82 Ave And 128 St'
p5161
sg30
F-122.86797859999999
sbasbag1
(g2
g3
Ntp5162
Rp5163
(dp5164
g7
g1
(g8
g3
Ntp5165
Rp5166
(dp5167
g12
g13
sg14
F49.155751
sg15
F219.0
sg16
g17
sg18
I20150908
sg19
g20
sg21
g22
sg23
S'Fraser Highway and 84 Avenue'
p5168
sg25
Fnan
sg26
I4
sg27
Fnan
sg28
g29
sg30
F-122.77478400000001
sbsg31
(lp5169
g1
(g33
g3
Ntp5170
Rp5171
(dp5172
g14
F49.15575035
sg37
S'http://cosmos.surrey.ca/TrafficCameraImages/enc_84_fraser_cam1.jpg'
p5173
sg27
Fnan
sg23
S'84 Ave And Fraser Hwy'
p5174
sg30
F-122.77472920000001
sbasbag1
(g2
g3
Ntp5175
Rp5176
(dp5177
g7
g1
(g8
g3
Ntp5178
Rp5179
(dp5180
g12
g13
sg14
F49.177049
sg15
Fnan
sg16
g17
sg18
I20150908
sg19
g59
sg21
g22
sg23
S'96 Avenue and 172 Street'
p5181
sg25
F2011.0
sg26
I4
sg27
Fnan
sg28
g29
sg30
F-122.745856
sbsg31
(lp5182
g1
(g33
g3
Ntp5183
Rp5184
(dp5185
g14
F49.17699184
sg37
S'http://cosmos.surrey.ca/TrafficCameraImages/enc_96_172_cam1.jpg'
p5186
sg27
Fnan
sg23
S'96 Ave And 172 St'
p5187
sg30
F-122.74586000000001
sbasbag1
(g2
g3
Ntp5188
Rp5189
(dp5190
g7
g1
(g8
g3
Ntp5191
Rp5192
(dp5193
g12
g13
sg14
F49.098298
sg15
Fnan
sg16
g17
sg18
I20150908
sg19
Fnan
sg21
g22
sg23
S'Colebrook Road and 152 Street Fg E'
p5194
sg25
F2014.0
sg26
I4
sg27
Fnan
sg28
g29
sg30
F-122.80077800000001
sbsg31
(lp5195
g1
(g33
g3
Ntp5196
Rp5197
(dp5198
g14
F49.09829866
sg37
S'http://cosmos.surrey.ca/TrafficCameraImages/enc_colebrook_152fg_cam1.jpg'
p5199
sg27
Fnan
sg23
S'Colebrook Rd And 152 St Ftg Rd'
p5200
sg30
F-122.80077730000001
sbasba.